	.file	"int_object.c"
# GNU C17 (Ubuntu 9.2.1-9ubuntu2) version 9.2.1 20191008 (x86_64-linux-gnu)
#	compiled by GNU C version 9.2.1 20191008, GMP version 6.1.2, MPFR version 4.0.2, MPC version 1.1.0, isl version isl-0.21-GMP

# GGC heuristics: --param ggc-min-expand=100 --param ggc-min-heapsize=131072
# options passed:  -imultiarch x86_64-linux-gnu int_object.c -mtune=generic
# -march=x86-64 -g -Os -fverbose-asm -fasynchronous-unwind-tables
# -fstack-protector-strong -Wformat -Wformat-security
# -fstack-clash-protection -fcf-protection
# options enabled:  -fPIC -fPIE -faggressive-loop-optimizations
# -fassume-phsa -fasynchronous-unwind-tables -fauto-inc-dec
# -fbranch-count-reg -fcaller-saves -fcode-hoisting
# -fcombine-stack-adjustments -fcommon -fcompare-elim -fcprop-registers
# -fcrossjumping -fcse-follow-jumps -fdefer-pop
# -fdelete-null-pointer-checks -fdevirtualize -fdevirtualize-speculatively
# -fdwarf2-cfi-asm -fearly-inlining -feliminate-unused-debug-types
# -fexpensive-optimizations -fforward-propagate -ffp-int-builtin-inexact
# -ffunction-cse -fgcse -fgcse-lm -fgnu-runtime -fgnu-unique
# -fguess-branch-probability -fhoist-adjacent-loads -fident -fif-conversion
# -fif-conversion2 -findirect-inlining -finline -finline-atomics
# -finline-functions -finline-functions-called-once
# -finline-small-functions -fipa-bit-cp -fipa-cp -fipa-icf
# -fipa-icf-functions -fipa-icf-variables -fipa-profile -fipa-pure-const
# -fipa-ra -fipa-reference -fipa-reference-addressable -fipa-sra
# -fipa-stack-alignment -fipa-vrp -fira-hoist-pressure
# -fira-share-save-slots -fira-share-spill-slots
# -fisolate-erroneous-paths-dereference -fivopts -fkeep-static-consts
# -fleading-underscore -flifetime-dse -flra-remat -flto-odr-type-merging
# -fmath-errno -fmerge-constants -fmerge-debug-strings
# -fmove-loop-invariants -fomit-frame-pointer -foptimize-sibling-calls
# -fpartial-inlining -fpeephole -fpeephole2 -fplt -fprefetch-loop-arrays
# -free -freg-struct-return -freorder-blocks -freorder-blocks-and-partition
# -freorder-functions -frerun-cse-after-loop
# -fsched-critical-path-heuristic -fsched-dep-count-heuristic
# -fsched-group-heuristic -fsched-interblock -fsched-last-insn-heuristic
# -fsched-rank-heuristic -fsched-spec -fsched-spec-insn-heuristic
# -fsched-stalled-insns-dep -fschedule-fusion -fschedule-insns2
# -fsemantic-interposition -fshow-column -fshrink-wrap
# -fshrink-wrap-separate -fsigned-zeros -fsplit-ivs-in-unroller
# -fsplit-wide-types -fssa-backprop -fssa-phiopt -fstack-clash-protection
# -fstack-protector-strong -fstdarg-opt -fstore-merging -fstrict-aliasing
# -fstrict-volatile-bitfields -fsync-libcalls -fthread-jumps
# -ftoplevel-reorder -ftrapping-math -ftree-bit-ccp -ftree-builtin-call-dce
# -ftree-ccp -ftree-ch -ftree-coalesce-vars -ftree-copy-prop -ftree-cselim
# -ftree-dce -ftree-dominator-opts -ftree-dse -ftree-forwprop -ftree-fre
# -ftree-loop-if-convert -ftree-loop-im -ftree-loop-ivcanon
# -ftree-loop-optimize -ftree-parallelize-loops= -ftree-phiprop -ftree-pre
# -ftree-pta -ftree-reassoc -ftree-scev-cprop -ftree-sink -ftree-slsr
# -ftree-sra -ftree-switch-conversion -ftree-tail-merge -ftree-ter
# -ftree-vrp -funit-at-a-time -funwind-tables -fvar-tracking
# -fvar-tracking-assignments -fverbose-asm -fzero-initialized-in-bss
# -m128bit-long-double -m64 -m80387 -malign-stringops
# -mavx256-split-unaligned-load -mavx256-split-unaligned-store
# -mfancy-math-387 -mfp-ret-in-387 -mfxsr -mglibc -mieee-fp
# -mlong-double-80 -mmmx -mno-sse4 -mpush-args -mred-zone -msse -msse2
# -mstv -mtls-direct-seg-refs -mvzeroupper

	.text
.Ltext0:
	.globl	operator_SLASHSLASH_fbgc_int_object
	.type	operator_SLASHSLASH_fbgc_int_object, @function
operator_SLASHSLASH_fbgc_int_object:
.LVL0:
.LFB44:
	.file 1 "int_object.c"
	.loc 1 250 104 view -0
	.cfi_startproc
	.loc 1 250 104 is_stmt 0 view .LVU1
	endbr64	
	.loc 1 251 5 is_stmt 1 view .LVU2
# int_object.c:250: struct fbgc_object * operator_SLASHSLASH_fbgc_int_object(struct fbgc_object * a,struct fbgc_object * b){
	.loc 1 250 104 is_stmt 0 view .LVU3
	pushq	%rbp	#
	.cfi_def_cfa_offset 16
	.cfi_offset 6, -16
	movq	%rsi, %rbp	# tmp101, b
	pushq	%rbx	#
	.cfi_def_cfa_offset 24
	.cfi_offset 3, -24
	pushq	%rax	#
	.cfi_def_cfa_offset 32
# int_object.c:251:     int a1 = convert_fbgc_object_to_int(a);
	.loc 1 251 14 view .LVU4
	call	convert_fbgc_object_to_int@PLT	#
.LVL1:
# int_object.c:252:     int b1 = convert_fbgc_object_to_int(b);
	.loc 1 252 14 view .LVU5
	movq	%rbp, %rdi	# b,
# int_object.c:251:     int a1 = convert_fbgc_object_to_int(a);
	.loc 1 251 14 view .LVU6
	movl	%eax, %ebx	# tmp102, a1
.LVL2:
	.loc 1 252 5 is_stmt 1 view .LVU7
# int_object.c:252:     int b1 = convert_fbgc_object_to_int(b);
	.loc 1 252 14 is_stmt 0 view .LVU8
	call	convert_fbgc_object_to_int@PLT	#
.LVL3:
	.loc 1 253 5 is_stmt 1 view .LVU9
# int_object.c:253:     return new_fbgc_double_object(a1*b1/(a1+b1+0.0)); 
	.loc 1 253 37 is_stmt 0 view .LVU10
	movl	%ebx, %edx	# a1, tmp93
# int_object.c:253:     return new_fbgc_double_object(a1*b1/(a1+b1+0.0)); 
	.loc 1 253 47 view .LVU11
	xorps	%xmm2, %xmm2	# tmp98
# int_object.c:253:     return new_fbgc_double_object(a1*b1/(a1+b1+0.0)); 
	.loc 1 253 44 view .LVU12
	addl	%eax, %ebx	# b1, tmp95
.LVL4:
# int_object.c:253:     return new_fbgc_double_object(a1*b1/(a1+b1+0.0)); 
	.loc 1 253 37 view .LVU13
	imull	%eax, %edx	# b1, tmp93
.LVL5:
# int_object.c:253:     return new_fbgc_double_object(a1*b1/(a1+b1+0.0)); 
	.loc 1 253 47 view .LVU14
	cvtsi2sdl	%ebx, %xmm1	# tmp95, tmp96
# int_object.c:253:     return new_fbgc_double_object(a1*b1/(a1+b1+0.0)); 
	.loc 1 253 12 view .LVU15
	cvtsi2sdl	%edx, %xmm0	# tmp93, tmp94
# int_object.c:254: }
	.loc 1 254 1 view .LVU16
	popq	%rdx	#
	.cfi_def_cfa_offset 24
	popq	%rbx	#
	.cfi_def_cfa_offset 16
	popq	%rbp	#
	.cfi_def_cfa_offset 8
.LVL6:
# int_object.c:253:     return new_fbgc_double_object(a1*b1/(a1+b1+0.0)); 
	.loc 1 253 47 view .LVU17
	addsd	%xmm2, %xmm1	# tmp98, tmp97
# int_object.c:253:     return new_fbgc_double_object(a1*b1/(a1+b1+0.0)); 
	.loc 1 253 12 view .LVU18
	divsd	%xmm1, %xmm0	# tmp97, tmp99
	jmp	new_fbgc_double_object@PLT	#
.LVL7:
	.loc 1 253 12 view .LVU19
	.cfi_endproc
.LFE44:
	.size	operator_SLASHSLASH_fbgc_int_object, .-operator_SLASHSLASH_fbgc_int_object
	.globl	operator_SLASH_fbgc_int_object
	.type	operator_SLASH_fbgc_int_object, @function
operator_SLASH_fbgc_int_object:
.LVL8:
.LFB48:
	.loc 1 276 99 is_stmt 1 view -0
	.cfi_startproc
	.loc 1 276 99 is_stmt 0 view .LVU21
	endbr64	
	.loc 1 277 5 is_stmt 1 view .LVU22
# int_object.c:276: struct fbgc_object * operator_SLASH_fbgc_int_object(struct fbgc_object * a,struct fbgc_object * b){
	.loc 1 276 99 is_stmt 0 view .LVU23
	pushq	%rbp	#
	.cfi_def_cfa_offset 16
	.cfi_offset 6, -16
	movq	%rsi, %rbp	# tmp94, b
	pushq	%rbx	#
	.cfi_def_cfa_offset 24
	.cfi_offset 3, -24
	pushq	%rax	#
	.cfi_def_cfa_offset 32
# int_object.c:277:     int a1 = convert_fbgc_object_to_int(a);
	.loc 1 277 14 view .LVU24
	call	convert_fbgc_object_to_int@PLT	#
.LVL9:
# int_object.c:278:     int b1 = convert_fbgc_object_to_int(b);
	.loc 1 278 14 view .LVU25
	movq	%rbp, %rdi	# b,
# int_object.c:277:     int a1 = convert_fbgc_object_to_int(a);
	.loc 1 277 14 view .LVU26
	movl	%eax, %ebx	# tmp95, a1
.LVL10:
	.loc 1 278 5 is_stmt 1 view .LVU27
# int_object.c:278:     int b1 = convert_fbgc_object_to_int(b);
	.loc 1 278 14 is_stmt 0 view .LVU28
	call	convert_fbgc_object_to_int@PLT	#
.LVL11:
	.loc 1 279 5 is_stmt 1 view .LVU29
# int_object.c:279:     return new_fbgc_double_object(((double)a1)/b1);
	.loc 1 279 36 is_stmt 0 view .LVU30
	cvtsi2sdl	%ebx, %xmm0	# a1, tmp90
# int_object.c:280: }
	.loc 1 280 1 view .LVU31
	popq	%rdx	#
	.cfi_def_cfa_offset 24
	popq	%rbx	#
	.cfi_def_cfa_offset 16
.LVL12:
# int_object.c:279:     return new_fbgc_double_object(((double)a1)/b1);
	.loc 1 279 12 view .LVU32
	cvtsi2sdl	%eax, %xmm1	# tmp96, tmp91
# int_object.c:280: }
	.loc 1 280 1 view .LVU33
	popq	%rbp	#
	.cfi_def_cfa_offset 8
.LVL13:
# int_object.c:279:     return new_fbgc_double_object(((double)a1)/b1);
	.loc 1 279 12 view .LVU34
	divsd	%xmm1, %xmm0	# tmp91, tmp92
	jmp	new_fbgc_double_object@PLT	#
.LVL14:
	.loc 1 279 12 view .LVU35
	.cfi_endproc
.LFE48:
	.size	operator_SLASH_fbgc_int_object, .-operator_SLASH_fbgc_int_object
	.globl	new_fbgc_int_object
	.type	new_fbgc_int_object, @function
new_fbgc_int_object:
.LVL15:
.LFB35:
	.loc 1 5 51 is_stmt 1 view -0
	.cfi_startproc
	.loc 1 5 51 is_stmt 0 view .LVU37
	endbr64	
	.loc 1 6 2 is_stmt 1 view .LVU38
# int_object.c:5: fbgc_object * new_fbgc_int_object(int int_content){
	.loc 1 5 51 is_stmt 0 view .LVU39
	pushq	%rbx	#
	.cfi_def_cfa_offset 16
	.cfi_offset 3, -16
# int_object.c:5: fbgc_object * new_fbgc_int_object(int int_content){
	.loc 1 5 51 view .LVU40
	movl	%edi, %ebx	# tmp85, int_content
# int_object.c:6: 	struct fbgc_int_object *into =  (struct fbgc_int_object*) fbgc_malloc(sizeof_fbgc_int_object());
	.loc 1 6 60 view .LVU41
	movl	$13, %edi	#,
.LVL16:
	.loc 1 6 60 view .LVU42
	call	fbgc_malloc@PLT	#
.LVL17:
	.loc 1 7 5 is_stmt 1 view .LVU43
# int_object.c:7:     into->base.type = INT;
	.loc 1 7 21 is_stmt 0 view .LVU44
	movb	$3, (%rax)	#, into_3->base.type
	.loc 1 9 5 is_stmt 1 view .LVU45
# int_object.c:9:     into->content = int_content; 
	.loc 1 9 19 is_stmt 0 view .LVU46
	movl	%ebx, 9(%rax)	# int_content, into_3->content
	.loc 1 10 5 is_stmt 1 view .LVU47
# int_object.c:11: }
	.loc 1 11 1 is_stmt 0 view .LVU48
	popq	%rbx	#
	.cfi_def_cfa_offset 8
.LVL18:
	.loc 1 11 1 view .LVU49
	ret	
	.cfi_endproc
.LFE35:
	.size	new_fbgc_int_object, .-new_fbgc_int_object
	.globl	operator_R_SHIFT_fbgc_int_object
	.type	operator_R_SHIFT_fbgc_int_object, @function
operator_R_SHIFT_fbgc_int_object:
.LVL19:
.LFB41:
	.loc 1 229 101 is_stmt 1 view -0
	.cfi_startproc
	.loc 1 229 101 is_stmt 0 view .LVU51
	endbr64	
	.loc 1 230 5 is_stmt 1 view .LVU52
# int_object.c:229: struct fbgc_object * operator_R_SHIFT_fbgc_int_object(struct fbgc_object * a,struct fbgc_object * b){
	.loc 1 229 101 is_stmt 0 view .LVU53
	pushq	%rbp	#
	.cfi_def_cfa_offset 16
	.cfi_offset 6, -16
	movq	%rsi, %rbp	# tmp90, b
	pushq	%rbx	#
	.cfi_def_cfa_offset 24
	.cfi_offset 3, -24
	pushq	%rax	#
	.cfi_def_cfa_offset 32
# int_object.c:230:     int a1 = convert_fbgc_object_to_int(a);
	.loc 1 230 14 view .LVU54
	call	convert_fbgc_object_to_int@PLT	#
.LVL20:
# int_object.c:231:     int b1 = convert_fbgc_object_to_int(b);
	.loc 1 231 14 view .LVU55
	movq	%rbp, %rdi	# b,
# int_object.c:230:     int a1 = convert_fbgc_object_to_int(a);
	.loc 1 230 14 view .LVU56
	movl	%eax, %ebx	# tmp91, a1
.LVL21:
	.loc 1 231 5 is_stmt 1 view .LVU57
# int_object.c:231:     int b1 = convert_fbgc_object_to_int(b);
	.loc 1 231 14 is_stmt 0 view .LVU58
	call	convert_fbgc_object_to_int@PLT	#
.LVL22:
	.loc 1 232 5 is_stmt 1 view .LVU59
# int_object.c:233: }
	.loc 1 233 1 is_stmt 0 view .LVU60
	popq	%rdx	#
	.cfi_def_cfa_offset 24
# int_object.c:232:     return new_fbgc_int_object(a1>>b1);   
	.loc 1 232 12 view .LVU61
	movl	%eax, %ecx	# tmp92, tmp94
	sarl	%cl, %ebx	# tmp94, a1
.LVL23:
	.loc 1 232 12 view .LVU62
	movl	%ebx, %edi	# a1, tmp88
# int_object.c:233: }
	.loc 1 233 1 view .LVU63
	popq	%rbx	#
	.cfi_def_cfa_offset 16
	popq	%rbp	#
	.cfi_def_cfa_offset 8
.LVL24:
# int_object.c:232:     return new_fbgc_int_object(a1>>b1);   
	.loc 1 232 12 view .LVU64
	jmp	new_fbgc_int_object	#
.LVL25:
	.loc 1 232 12 view .LVU65
	.cfi_endproc
.LFE41:
	.size	operator_R_SHIFT_fbgc_int_object, .-operator_R_SHIFT_fbgc_int_object
	.globl	operator_L_SHIFT_fbgc_int_object
	.type	operator_L_SHIFT_fbgc_int_object, @function
operator_L_SHIFT_fbgc_int_object:
.LVL26:
.LFB42:
	.loc 1 236 101 is_stmt 1 view -0
	.cfi_startproc
	.loc 1 236 101 is_stmt 0 view .LVU67
	endbr64	
	.loc 1 237 5 is_stmt 1 view .LVU68
# int_object.c:236: struct fbgc_object * operator_L_SHIFT_fbgc_int_object(struct fbgc_object * a,struct fbgc_object * b){
	.loc 1 236 101 is_stmt 0 view .LVU69
	pushq	%rbp	#
	.cfi_def_cfa_offset 16
	.cfi_offset 6, -16
	movq	%rsi, %rbp	# tmp90, b
	pushq	%rbx	#
	.cfi_def_cfa_offset 24
	.cfi_offset 3, -24
	pushq	%rax	#
	.cfi_def_cfa_offset 32
# int_object.c:237:     int a1 = convert_fbgc_object_to_int(a);
	.loc 1 237 14 view .LVU70
	call	convert_fbgc_object_to_int@PLT	#
.LVL27:
# int_object.c:238:     int b1 = convert_fbgc_object_to_int(b);
	.loc 1 238 14 view .LVU71
	movq	%rbp, %rdi	# b,
# int_object.c:237:     int a1 = convert_fbgc_object_to_int(a);
	.loc 1 237 14 view .LVU72
	movl	%eax, %ebx	# tmp91, a1
.LVL28:
	.loc 1 238 5 is_stmt 1 view .LVU73
# int_object.c:238:     int b1 = convert_fbgc_object_to_int(b);
	.loc 1 238 14 is_stmt 0 view .LVU74
	call	convert_fbgc_object_to_int@PLT	#
.LVL29:
	.loc 1 239 5 is_stmt 1 view .LVU75
# int_object.c:240: }
	.loc 1 240 1 is_stmt 0 view .LVU76
	popq	%rdx	#
	.cfi_def_cfa_offset 24
# int_object.c:239:     return new_fbgc_int_object(a1<<b1);
	.loc 1 239 12 view .LVU77
	movl	%eax, %ecx	# tmp92, tmp94
	sall	%cl, %ebx	# tmp94, a1
.LVL30:
	.loc 1 239 12 view .LVU78
	movl	%ebx, %edi	# a1, tmp88
# int_object.c:240: }
	.loc 1 240 1 view .LVU79
	popq	%rbx	#
	.cfi_def_cfa_offset 16
	popq	%rbp	#
	.cfi_def_cfa_offset 8
.LVL31:
# int_object.c:239:     return new_fbgc_int_object(a1<<b1);
	.loc 1 239 12 view .LVU80
	jmp	new_fbgc_int_object	#
.LVL32:
	.loc 1 239 12 view .LVU81
	.cfi_endproc
.LFE42:
	.size	operator_L_SHIFT_fbgc_int_object, .-operator_L_SHIFT_fbgc_int_object
	.globl	operator_STARSTAR_fbgc_int_object
	.type	operator_STARSTAR_fbgc_int_object, @function
operator_STARSTAR_fbgc_int_object:
.LVL33:
.LFB43:
	.loc 1 243 102 is_stmt 1 view -0
	.cfi_startproc
	.loc 1 243 102 is_stmt 0 view .LVU83
	endbr64	
	.loc 1 244 5 is_stmt 1 view .LVU84
# int_object.c:243: struct fbgc_object * operator_STARSTAR_fbgc_int_object(struct fbgc_object * a,struct fbgc_object * b){
	.loc 1 243 102 is_stmt 0 view .LVU85
	pushq	%rbp	#
	.cfi_def_cfa_offset 16
	.cfi_offset 6, -16
	movq	%rsi, %rbp	# tmp95, b
	pushq	%rbx	#
	.cfi_def_cfa_offset 24
	.cfi_offset 3, -24
	pushq	%rax	#
	.cfi_def_cfa_offset 32
# int_object.c:244:     int a1 = convert_fbgc_object_to_int(a);
	.loc 1 244 14 view .LVU86
	call	convert_fbgc_object_to_int@PLT	#
.LVL34:
# int_object.c:245:     int b1 = convert_fbgc_object_to_int(b);
	.loc 1 245 14 view .LVU87
	movq	%rbp, %rdi	# b,
# int_object.c:244:     int a1 = convert_fbgc_object_to_int(a);
	.loc 1 244 14 view .LVU88
	movl	%eax, %ebx	# tmp96, a1
.LVL35:
	.loc 1 245 5 is_stmt 1 view .LVU89
# int_object.c:245:     int b1 = convert_fbgc_object_to_int(b);
	.loc 1 245 14 is_stmt 0 view .LVU90
	call	convert_fbgc_object_to_int@PLT	#
.LVL36:
	.loc 1 246 5 is_stmt 1 view .LVU91
# int_object.c:246:     return new_fbgc_int_object(pow(a1,b1));
	.loc 1 246 32 is_stmt 0 view .LVU92
	cvtsi2sdl	%ebx, %xmm0	# a1, tmp92
	cvtsi2sdl	%eax, %xmm1	# tmp97,
	call	pow@PLT	#
.LVL37:
# int_object.c:247: }
	.loc 1 247 1 view .LVU93
	popq	%rdx	#
	.cfi_def_cfa_offset 24
	popq	%rbx	#
	.cfi_def_cfa_offset 16
.LVL38:
# int_object.c:246:     return new_fbgc_int_object(pow(a1,b1));
	.loc 1 246 12 view .LVU94
	cvttsd2sil	%xmm0, %edi	# tmp98, tmp93
# int_object.c:247: }
	.loc 1 247 1 view .LVU95
	popq	%rbp	#
	.cfi_def_cfa_offset 8
.LVL39:
# int_object.c:246:     return new_fbgc_int_object(pow(a1,b1));
	.loc 1 246 12 view .LVU96
	jmp	new_fbgc_int_object	#
.LVL40:
	.cfi_endproc
.LFE43:
	.size	operator_STARSTAR_fbgc_int_object, .-operator_STARSTAR_fbgc_int_object
	.globl	operator_CARET_fbgc_int_object
	.type	operator_CARET_fbgc_int_object, @function
operator_CARET_fbgc_int_object:
.LFB66:
	.cfi_startproc
	endbr64	
	jmp	operator_STARSTAR_fbgc_int_object	#
	.cfi_endproc
.LFE66:
	.size	operator_CARET_fbgc_int_object, .-operator_CARET_fbgc_int_object
	.globl	operator_PLUS_fbgc_int_object
	.type	operator_PLUS_fbgc_int_object, @function
operator_PLUS_fbgc_int_object:
.LVL41:
.LFB45:
	.loc 1 257 98 is_stmt 1 view -0
	.cfi_startproc
	.loc 1 257 98 is_stmt 0 view .LVU98
	endbr64	
	.loc 1 258 5 is_stmt 1 view .LVU99
# int_object.c:257: struct fbgc_object * operator_PLUS_fbgc_int_object(struct fbgc_object * a,struct fbgc_object * b){
	.loc 1 257 98 is_stmt 0 view .LVU100
	pushq	%rbp	#
	.cfi_def_cfa_offset 16
	.cfi_offset 6, -16
	movq	%rsi, %rbp	# tmp90, b
	pushq	%rbx	#
	.cfi_def_cfa_offset 24
	.cfi_offset 3, -24
	pushq	%rax	#
	.cfi_def_cfa_offset 32
# int_object.c:258:     int a1 = convert_fbgc_object_to_int(a);
	.loc 1 258 14 view .LVU101
	call	convert_fbgc_object_to_int@PLT	#
.LVL42:
# int_object.c:259:     int b1 = convert_fbgc_object_to_int(b);
	.loc 1 259 14 view .LVU102
	movq	%rbp, %rdi	# b,
# int_object.c:258:     int a1 = convert_fbgc_object_to_int(a);
	.loc 1 258 14 view .LVU103
	movl	%eax, %ebx	# tmp91, a1
.LVL43:
	.loc 1 259 5 is_stmt 1 view .LVU104
# int_object.c:259:     int b1 = convert_fbgc_object_to_int(b);
	.loc 1 259 14 is_stmt 0 view .LVU105
	call	convert_fbgc_object_to_int@PLT	#
.LVL44:
	.loc 1 260 5 is_stmt 1 view .LVU106
# int_object.c:261: }
	.loc 1 261 1 is_stmt 0 view .LVU107
	popq	%rdx	#
	.cfi_def_cfa_offset 24
# int_object.c:260:     return new_fbgc_int_object(a1+b1);   
	.loc 1 260 12 view .LVU108
	leal	(%rbx,%rax), %edi	#, tmp88
# int_object.c:261: }
	.loc 1 261 1 view .LVU109
	popq	%rbx	#
	.cfi_def_cfa_offset 16
.LVL45:
	.loc 1 261 1 view .LVU110
	popq	%rbp	#
	.cfi_def_cfa_offset 8
.LVL46:
# int_object.c:260:     return new_fbgc_int_object(a1+b1);   
	.loc 1 260 12 view .LVU111
	jmp	new_fbgc_int_object	#
.LVL47:
	.loc 1 260 12 view .LVU112
	.cfi_endproc
.LFE45:
	.size	operator_PLUS_fbgc_int_object, .-operator_PLUS_fbgc_int_object
	.globl	operator_MINUS_fbgc_int_object
	.type	operator_MINUS_fbgc_int_object, @function
operator_MINUS_fbgc_int_object:
.LVL48:
.LFB46:
	.loc 1 264 99 is_stmt 1 view -0
	.cfi_startproc
	.loc 1 264 99 is_stmt 0 view .LVU114
	endbr64	
	.loc 1 265 5 is_stmt 1 view .LVU115
# int_object.c:264: struct fbgc_object * operator_MINUS_fbgc_int_object(struct fbgc_object * a,struct fbgc_object * b){
	.loc 1 264 99 is_stmt 0 view .LVU116
	pushq	%rbp	#
	.cfi_def_cfa_offset 16
	.cfi_offset 6, -16
	movq	%rsi, %rbp	# tmp90, b
	pushq	%rbx	#
	.cfi_def_cfa_offset 24
	.cfi_offset 3, -24
	pushq	%rax	#
	.cfi_def_cfa_offset 32
# int_object.c:265:     int a1 = convert_fbgc_object_to_int(a);
	.loc 1 265 14 view .LVU117
	call	convert_fbgc_object_to_int@PLT	#
.LVL49:
# int_object.c:266:     int b1 = convert_fbgc_object_to_int(b);
	.loc 1 266 14 view .LVU118
	movq	%rbp, %rdi	# b,
# int_object.c:265:     int a1 = convert_fbgc_object_to_int(a);
	.loc 1 265 14 view .LVU119
	movl	%eax, %ebx	# tmp91, a1
.LVL50:
	.loc 1 266 5 is_stmt 1 view .LVU120
# int_object.c:266:     int b1 = convert_fbgc_object_to_int(b);
	.loc 1 266 14 is_stmt 0 view .LVU121
	call	convert_fbgc_object_to_int@PLT	#
.LVL51:
	.loc 1 267 5 is_stmt 1 view .LVU122
# int_object.c:268: }
	.loc 1 268 1 is_stmt 0 view .LVU123
	popq	%rdx	#
	.cfi_def_cfa_offset 24
# int_object.c:267:     return new_fbgc_int_object(a1-b1);
	.loc 1 267 12 view .LVU124
	subl	%eax, %ebx	# tmp92, a1
.LVL52:
	.loc 1 267 12 view .LVU125
	movl	%ebx, %edi	# a1, tmp88
# int_object.c:268: }
	.loc 1 268 1 view .LVU126
	popq	%rbx	#
	.cfi_def_cfa_offset 16
	popq	%rbp	#
	.cfi_def_cfa_offset 8
.LVL53:
# int_object.c:267:     return new_fbgc_int_object(a1-b1);
	.loc 1 267 12 view .LVU127
	jmp	new_fbgc_int_object	#
.LVL54:
	.loc 1 267 12 view .LVU128
	.cfi_endproc
.LFE46:
	.size	operator_MINUS_fbgc_int_object, .-operator_MINUS_fbgc_int_object
	.globl	operator_STAR_fbgc_int_object
	.type	operator_STAR_fbgc_int_object, @function
operator_STAR_fbgc_int_object:
.LVL55:
.LFB47:
	.loc 1 270 98 is_stmt 1 view -0
	.cfi_startproc
	.loc 1 270 98 is_stmt 0 view .LVU130
	endbr64	
	.loc 1 271 5 is_stmt 1 view .LVU131
# int_object.c:270: struct fbgc_object * operator_STAR_fbgc_int_object(struct fbgc_object * a,struct fbgc_object * b){
	.loc 1 270 98 is_stmt 0 view .LVU132
	pushq	%rbp	#
	.cfi_def_cfa_offset 16
	.cfi_offset 6, -16
	movq	%rsi, %rbp	# tmp90, b
	pushq	%rbx	#
	.cfi_def_cfa_offset 24
	.cfi_offset 3, -24
	pushq	%rax	#
	.cfi_def_cfa_offset 32
# int_object.c:271:     int a1 = convert_fbgc_object_to_int(a);
	.loc 1 271 14 view .LVU133
	call	convert_fbgc_object_to_int@PLT	#
.LVL56:
# int_object.c:272:     int b1 = convert_fbgc_object_to_int(b);
	.loc 1 272 14 view .LVU134
	movq	%rbp, %rdi	# b,
# int_object.c:271:     int a1 = convert_fbgc_object_to_int(a);
	.loc 1 271 14 view .LVU135
	movl	%eax, %ebx	# tmp91, a1
.LVL57:
	.loc 1 272 5 is_stmt 1 view .LVU136
# int_object.c:272:     int b1 = convert_fbgc_object_to_int(b);
	.loc 1 272 14 is_stmt 0 view .LVU137
	call	convert_fbgc_object_to_int@PLT	#
.LVL58:
	.loc 1 273 5 is_stmt 1 view .LVU138
# int_object.c:274: }
	.loc 1 274 1 is_stmt 0 view .LVU139
	popq	%rdx	#
	.cfi_def_cfa_offset 24
# int_object.c:273:     return new_fbgc_int_object(a1*b1);
	.loc 1 273 12 view .LVU140
	imull	%eax, %ebx	# tmp92, a1
.LVL59:
	.loc 1 273 12 view .LVU141
	movl	%ebx, %edi	# a1, tmp88
# int_object.c:274: }
	.loc 1 274 1 view .LVU142
	popq	%rbx	#
	.cfi_def_cfa_offset 16
	popq	%rbp	#
	.cfi_def_cfa_offset 8
.LVL60:
# int_object.c:273:     return new_fbgc_int_object(a1*b1);
	.loc 1 273 12 view .LVU143
	jmp	new_fbgc_int_object	#
.LVL61:
	.loc 1 273 12 view .LVU144
	.cfi_endproc
.LFE47:
	.size	operator_STAR_fbgc_int_object, .-operator_STAR_fbgc_int_object
	.globl	operator_PERCENT_fbgc_int_object
	.type	operator_PERCENT_fbgc_int_object, @function
operator_PERCENT_fbgc_int_object:
.LVL62:
.LFB50:
	.loc 1 290 101 is_stmt 1 view -0
	.cfi_startproc
	.loc 1 290 101 is_stmt 0 view .LVU146
	endbr64	
	.loc 1 291 5 is_stmt 1 view .LVU147
# int_object.c:290: struct fbgc_object * operator_PERCENT_fbgc_int_object(struct fbgc_object * a,struct fbgc_object * b){
	.loc 1 290 101 is_stmt 0 view .LVU148
	pushq	%rbp	#
	.cfi_def_cfa_offset 16
	.cfi_offset 6, -16
	movq	%rsi, %rbp	# tmp92, b
	pushq	%rbx	#
	.cfi_def_cfa_offset 24
	.cfi_offset 3, -24
	pushq	%rax	#
	.cfi_def_cfa_offset 32
# int_object.c:291:     int a1 = convert_fbgc_object_to_int(a);
	.loc 1 291 14 view .LVU149
	call	convert_fbgc_object_to_int@PLT	#
.LVL63:
# int_object.c:292:     int b1 = convert_fbgc_object_to_int(b);
	.loc 1 292 14 view .LVU150
	movq	%rbp, %rdi	# b,
# int_object.c:291:     int a1 = convert_fbgc_object_to_int(a);
	.loc 1 291 14 view .LVU151
	movl	%eax, %ebx	# tmp93, a1
.LVL64:
	.loc 1 292 5 is_stmt 1 view .LVU152
# int_object.c:292:     int b1 = convert_fbgc_object_to_int(b);
	.loc 1 292 14 is_stmt 0 view .LVU153
	call	convert_fbgc_object_to_int@PLT	#
.LVL65:
	.loc 1 292 14 view .LVU154
	movl	%eax, %r8d	#, tmp94
.LVL66:
	.loc 1 293 5 is_stmt 1 view .LVU155
# int_object.c:293:     return new_fbgc_int_object(a1%b1);
	.loc 1 293 12 is_stmt 0 view .LVU156
	movl	%ebx, %eax	# a1, a1
.LVL67:
	.loc 1 293 12 view .LVU157
	cltd
	idivl	%r8d	# tmp94
	movl	%edx, %edi	# tmp89, tmp89
# int_object.c:294: }
	.loc 1 294 1 view .LVU158
	popq	%rdx	#
	.cfi_def_cfa_offset 24
	popq	%rbx	#
	.cfi_def_cfa_offset 16
.LVL68:
	.loc 1 294 1 view .LVU159
	popq	%rbp	#
	.cfi_def_cfa_offset 8
.LVL69:
# int_object.c:293:     return new_fbgc_int_object(a1%b1);
	.loc 1 293 12 view .LVU160
	jmp	new_fbgc_int_object	#
.LVL70:
	.loc 1 293 12 view .LVU161
	.cfi_endproc
.LFE50:
	.size	operator_PERCENT_fbgc_int_object, .-operator_PERCENT_fbgc_int_object
	.globl	operator_LO_EQ_fbgc_int_object
	.type	operator_LO_EQ_fbgc_int_object, @function
operator_LO_EQ_fbgc_int_object:
.LVL71:
.LFB51:
	.loc 1 297 99 is_stmt 1 view -0
	.cfi_startproc
	.loc 1 297 99 is_stmt 0 view .LVU163
	endbr64	
	.loc 1 298 5 is_stmt 1 view .LVU164
# int_object.c:297: struct fbgc_object * operator_LO_EQ_fbgc_int_object(struct fbgc_object * a,struct fbgc_object * b){
	.loc 1 297 99 is_stmt 0 view .LVU165
	pushq	%rbp	#
	.cfi_def_cfa_offset 16
	.cfi_offset 6, -16
	movq	%rsi, %rbp	# tmp92, b
	pushq	%rbx	#
	.cfi_def_cfa_offset 24
	.cfi_offset 3, -24
	pushq	%rax	#
	.cfi_def_cfa_offset 32
# int_object.c:298:     int a1 = convert_fbgc_object_to_int(a);
	.loc 1 298 14 view .LVU166
	call	convert_fbgc_object_to_int@PLT	#
.LVL72:
# int_object.c:299:     int b1 = convert_fbgc_object_to_int(b);
	.loc 1 299 14 view .LVU167
	movq	%rbp, %rdi	# b,
# int_object.c:298:     int a1 = convert_fbgc_object_to_int(a);
	.loc 1 298 14 view .LVU168
	movl	%eax, %ebx	# tmp93, a1
.LVL73:
	.loc 1 299 5 is_stmt 1 view .LVU169
# int_object.c:299:     int b1 = convert_fbgc_object_to_int(b);
	.loc 1 299 14 is_stmt 0 view .LVU170
	call	convert_fbgc_object_to_int@PLT	#
.LVL74:
	.loc 1 300 5 is_stmt 1 view .LVU171
# int_object.c:300:     return new_fbgc_int_object(a1<=b1);   
	.loc 1 300 12 is_stmt 0 view .LVU172
	xorl	%edi, %edi	# tmp89
# int_object.c:301: }
	.loc 1 301 1 view .LVU173
	popq	%rdx	#
	.cfi_def_cfa_offset 24
# int_object.c:300:     return new_fbgc_int_object(a1<=b1);   
	.loc 1 300 12 view .LVU174
	cmpl	%eax, %ebx	# tmp94, a1
# int_object.c:301: }
	.loc 1 301 1 view .LVU175
	popq	%rbx	#
	.cfi_def_cfa_offset 16
.LVL75:
	.loc 1 301 1 view .LVU176
	popq	%rbp	#
	.cfi_def_cfa_offset 8
.LVL76:
# int_object.c:300:     return new_fbgc_int_object(a1<=b1);   
	.loc 1 300 12 view .LVU177
	setle	%dil	#, tmp89
	jmp	new_fbgc_int_object	#
.LVL77:
	.loc 1 300 12 view .LVU178
	.cfi_endproc
.LFE51:
	.size	operator_LO_EQ_fbgc_int_object, .-operator_LO_EQ_fbgc_int_object
	.globl	operator_GR_EQ_fbgc_int_object
	.type	operator_GR_EQ_fbgc_int_object, @function
operator_GR_EQ_fbgc_int_object:
.LVL78:
.LFB52:
	.loc 1 304 99 is_stmt 1 view -0
	.cfi_startproc
	.loc 1 304 99 is_stmt 0 view .LVU180
	endbr64	
	.loc 1 305 5 is_stmt 1 view .LVU181
# int_object.c:304: struct fbgc_object * operator_GR_EQ_fbgc_int_object(struct fbgc_object * a,struct fbgc_object * b){
	.loc 1 304 99 is_stmt 0 view .LVU182
	pushq	%rbp	#
	.cfi_def_cfa_offset 16
	.cfi_offset 6, -16
	movq	%rsi, %rbp	# tmp92, b
	pushq	%rbx	#
	.cfi_def_cfa_offset 24
	.cfi_offset 3, -24
	pushq	%rax	#
	.cfi_def_cfa_offset 32
# int_object.c:305:     int a1 = convert_fbgc_object_to_int(a);
	.loc 1 305 14 view .LVU183
	call	convert_fbgc_object_to_int@PLT	#
.LVL79:
# int_object.c:306:     int b1 = convert_fbgc_object_to_int(b);
	.loc 1 306 14 view .LVU184
	movq	%rbp, %rdi	# b,
# int_object.c:305:     int a1 = convert_fbgc_object_to_int(a);
	.loc 1 305 14 view .LVU185
	movl	%eax, %ebx	# tmp93, a1
.LVL80:
	.loc 1 306 5 is_stmt 1 view .LVU186
# int_object.c:306:     int b1 = convert_fbgc_object_to_int(b);
	.loc 1 306 14 is_stmt 0 view .LVU187
	call	convert_fbgc_object_to_int@PLT	#
.LVL81:
	.loc 1 307 5 is_stmt 1 view .LVU188
# int_object.c:307:     return new_fbgc_int_object(a1>=b1); 
	.loc 1 307 12 is_stmt 0 view .LVU189
	xorl	%edi, %edi	# tmp89
# int_object.c:308: }
	.loc 1 308 1 view .LVU190
	popq	%rdx	#
	.cfi_def_cfa_offset 24
# int_object.c:307:     return new_fbgc_int_object(a1>=b1); 
	.loc 1 307 12 view .LVU191
	cmpl	%eax, %ebx	# tmp94, a1
# int_object.c:308: }
	.loc 1 308 1 view .LVU192
	popq	%rbx	#
	.cfi_def_cfa_offset 16
.LVL82:
	.loc 1 308 1 view .LVU193
	popq	%rbp	#
	.cfi_def_cfa_offset 8
.LVL83:
# int_object.c:307:     return new_fbgc_int_object(a1>=b1); 
	.loc 1 307 12 view .LVU194
	setge	%dil	#, tmp89
	jmp	new_fbgc_int_object	#
.LVL84:
	.loc 1 307 12 view .LVU195
	.cfi_endproc
.LFE52:
	.size	operator_GR_EQ_fbgc_int_object, .-operator_GR_EQ_fbgc_int_object
	.globl	operator_EQ_EQ_fbgc_int_object
	.type	operator_EQ_EQ_fbgc_int_object, @function
operator_EQ_EQ_fbgc_int_object:
.LVL85:
.LFB53:
	.loc 1 310 99 is_stmt 1 view -0
	.cfi_startproc
	.loc 1 310 99 is_stmt 0 view .LVU197
	endbr64	
	.loc 1 311 5 is_stmt 1 view .LVU198
# int_object.c:310: struct fbgc_object * operator_EQ_EQ_fbgc_int_object(struct fbgc_object * a,struct fbgc_object * b){
	.loc 1 310 99 is_stmt 0 view .LVU199
	pushq	%rbp	#
	.cfi_def_cfa_offset 16
	.cfi_offset 6, -16
	movq	%rsi, %rbp	# tmp92, b
	pushq	%rbx	#
	.cfi_def_cfa_offset 24
	.cfi_offset 3, -24
	pushq	%rax	#
	.cfi_def_cfa_offset 32
# int_object.c:311:     int a1 = convert_fbgc_object_to_int(a);
	.loc 1 311 14 view .LVU200
	call	convert_fbgc_object_to_int@PLT	#
.LVL86:
# int_object.c:312:     int b1 = convert_fbgc_object_to_int(b);
	.loc 1 312 14 view .LVU201
	movq	%rbp, %rdi	# b,
# int_object.c:311:     int a1 = convert_fbgc_object_to_int(a);
	.loc 1 311 14 view .LVU202
	movl	%eax, %ebx	# tmp93, a1
.LVL87:
	.loc 1 312 5 is_stmt 1 view .LVU203
# int_object.c:312:     int b1 = convert_fbgc_object_to_int(b);
	.loc 1 312 14 is_stmt 0 view .LVU204
	call	convert_fbgc_object_to_int@PLT	#
.LVL88:
	.loc 1 313 5 is_stmt 1 view .LVU205
# int_object.c:313:     return new_fbgc_int_object(a1==b1);   
	.loc 1 313 12 is_stmt 0 view .LVU206
	xorl	%edi, %edi	# tmp89
# int_object.c:314: }
	.loc 1 314 1 view .LVU207
	popq	%rdx	#
	.cfi_def_cfa_offset 24
# int_object.c:313:     return new_fbgc_int_object(a1==b1);   
	.loc 1 313 12 view .LVU208
	cmpl	%eax, %ebx	# tmp94, a1
# int_object.c:314: }
	.loc 1 314 1 view .LVU209
	popq	%rbx	#
	.cfi_def_cfa_offset 16
.LVL89:
	.loc 1 314 1 view .LVU210
	popq	%rbp	#
	.cfi_def_cfa_offset 8
.LVL90:
# int_object.c:313:     return new_fbgc_int_object(a1==b1);   
	.loc 1 313 12 view .LVU211
	sete	%dil	#, tmp89
	jmp	new_fbgc_int_object	#
.LVL91:
	.loc 1 313 12 view .LVU212
	.cfi_endproc
.LFE53:
	.size	operator_EQ_EQ_fbgc_int_object, .-operator_EQ_EQ_fbgc_int_object
	.globl	operator_NOT_EQ_fbgc_int_object
	.type	operator_NOT_EQ_fbgc_int_object, @function
operator_NOT_EQ_fbgc_int_object:
.LVL92:
.LFB54:
	.loc 1 316 100 is_stmt 1 view -0
	.cfi_startproc
	.loc 1 316 100 is_stmt 0 view .LVU214
	endbr64	
	.loc 1 317 5 is_stmt 1 view .LVU215
# int_object.c:316: struct fbgc_object * operator_NOT_EQ_fbgc_int_object(struct fbgc_object * a,struct fbgc_object * b){
	.loc 1 316 100 is_stmt 0 view .LVU216
	pushq	%rbp	#
	.cfi_def_cfa_offset 16
	.cfi_offset 6, -16
	movq	%rsi, %rbp	# tmp92, b
	pushq	%rbx	#
	.cfi_def_cfa_offset 24
	.cfi_offset 3, -24
	pushq	%rax	#
	.cfi_def_cfa_offset 32
# int_object.c:317:     int a1 = convert_fbgc_object_to_int(a);
	.loc 1 317 14 view .LVU217
	call	convert_fbgc_object_to_int@PLT	#
.LVL93:
# int_object.c:318:     int b1 = convert_fbgc_object_to_int(b);
	.loc 1 318 14 view .LVU218
	movq	%rbp, %rdi	# b,
# int_object.c:317:     int a1 = convert_fbgc_object_to_int(a);
	.loc 1 317 14 view .LVU219
	movl	%eax, %ebx	# tmp93, a1
.LVL94:
	.loc 1 318 5 is_stmt 1 view .LVU220
# int_object.c:318:     int b1 = convert_fbgc_object_to_int(b);
	.loc 1 318 14 is_stmt 0 view .LVU221
	call	convert_fbgc_object_to_int@PLT	#
.LVL95:
	.loc 1 319 5 is_stmt 1 view .LVU222
# int_object.c:319:     return new_fbgc_int_object(a1!=b1);
	.loc 1 319 12 is_stmt 0 view .LVU223
	xorl	%edi, %edi	# tmp89
# int_object.c:320: }
	.loc 1 320 1 view .LVU224
	popq	%rdx	#
	.cfi_def_cfa_offset 24
# int_object.c:319:     return new_fbgc_int_object(a1!=b1);
	.loc 1 319 12 view .LVU225
	cmpl	%eax, %ebx	# tmp94, a1
# int_object.c:320: }
	.loc 1 320 1 view .LVU226
	popq	%rbx	#
	.cfi_def_cfa_offset 16
.LVL96:
	.loc 1 320 1 view .LVU227
	popq	%rbp	#
	.cfi_def_cfa_offset 8
.LVL97:
# int_object.c:319:     return new_fbgc_int_object(a1!=b1);
	.loc 1 319 12 view .LVU228
	setne	%dil	#, tmp89
	jmp	new_fbgc_int_object	#
.LVL98:
	.loc 1 319 12 view .LVU229
	.cfi_endproc
.LFE54:
	.size	operator_NOT_EQ_fbgc_int_object, .-operator_NOT_EQ_fbgc_int_object
	.globl	operator_LOWER_fbgc_int_object
	.type	operator_LOWER_fbgc_int_object, @function
operator_LOWER_fbgc_int_object:
.LVL99:
.LFB55:
	.loc 1 322 99 is_stmt 1 view -0
	.cfi_startproc
	.loc 1 322 99 is_stmt 0 view .LVU231
	endbr64	
	.loc 1 323 5 is_stmt 1 view .LVU232
# int_object.c:322: struct fbgc_object * operator_LOWER_fbgc_int_object(struct fbgc_object * a,struct fbgc_object * b){
	.loc 1 322 99 is_stmt 0 view .LVU233
	pushq	%rbp	#
	.cfi_def_cfa_offset 16
	.cfi_offset 6, -16
	movq	%rsi, %rbp	# tmp92, b
	pushq	%rbx	#
	.cfi_def_cfa_offset 24
	.cfi_offset 3, -24
	pushq	%rax	#
	.cfi_def_cfa_offset 32
# int_object.c:323:     int a1 = convert_fbgc_object_to_int(a);
	.loc 1 323 14 view .LVU234
	call	convert_fbgc_object_to_int@PLT	#
.LVL100:
# int_object.c:324:     int b1 = convert_fbgc_object_to_int(b);
	.loc 1 324 14 view .LVU235
	movq	%rbp, %rdi	# b,
# int_object.c:323:     int a1 = convert_fbgc_object_to_int(a);
	.loc 1 323 14 view .LVU236
	movl	%eax, %ebx	# tmp93, a1
.LVL101:
	.loc 1 324 5 is_stmt 1 view .LVU237
# int_object.c:324:     int b1 = convert_fbgc_object_to_int(b);
	.loc 1 324 14 is_stmt 0 view .LVU238
	call	convert_fbgc_object_to_int@PLT	#
.LVL102:
	.loc 1 325 5 is_stmt 1 view .LVU239
# int_object.c:325:     return new_fbgc_int_object(a1<b1);
	.loc 1 325 12 is_stmt 0 view .LVU240
	xorl	%edi, %edi	# tmp89
# int_object.c:326: }
	.loc 1 326 1 view .LVU241
	popq	%rdx	#
	.cfi_def_cfa_offset 24
# int_object.c:325:     return new_fbgc_int_object(a1<b1);
	.loc 1 325 12 view .LVU242
	cmpl	%eax, %ebx	# tmp94, a1
# int_object.c:326: }
	.loc 1 326 1 view .LVU243
	popq	%rbx	#
	.cfi_def_cfa_offset 16
.LVL103:
	.loc 1 326 1 view .LVU244
	popq	%rbp	#
	.cfi_def_cfa_offset 8
.LVL104:
# int_object.c:325:     return new_fbgc_int_object(a1<b1);
	.loc 1 325 12 view .LVU245
	setl	%dil	#, tmp89
	jmp	new_fbgc_int_object	#
.LVL105:
	.loc 1 325 12 view .LVU246
	.cfi_endproc
.LFE55:
	.size	operator_LOWER_fbgc_int_object, .-operator_LOWER_fbgc_int_object
	.globl	operator_GREATER_fbgc_int_object
	.type	operator_GREATER_fbgc_int_object, @function
operator_GREATER_fbgc_int_object:
.LVL106:
.LFB56:
	.loc 1 328 101 is_stmt 1 view -0
	.cfi_startproc
	.loc 1 328 101 is_stmt 0 view .LVU248
	endbr64	
	.loc 1 329 5 is_stmt 1 view .LVU249
# int_object.c:328: struct fbgc_object * operator_GREATER_fbgc_int_object(struct fbgc_object * a,struct fbgc_object * b){
	.loc 1 328 101 is_stmt 0 view .LVU250
	pushq	%rbp	#
	.cfi_def_cfa_offset 16
	.cfi_offset 6, -16
	movq	%rsi, %rbp	# tmp92, b
	pushq	%rbx	#
	.cfi_def_cfa_offset 24
	.cfi_offset 3, -24
	pushq	%rax	#
	.cfi_def_cfa_offset 32
# int_object.c:329:     int a1 = convert_fbgc_object_to_int(a);
	.loc 1 329 14 view .LVU251
	call	convert_fbgc_object_to_int@PLT	#
.LVL107:
# int_object.c:330:     int b1 = convert_fbgc_object_to_int(b);
	.loc 1 330 14 view .LVU252
	movq	%rbp, %rdi	# b,
# int_object.c:329:     int a1 = convert_fbgc_object_to_int(a);
	.loc 1 329 14 view .LVU253
	movl	%eax, %ebx	# tmp93, a1
.LVL108:
	.loc 1 330 5 is_stmt 1 view .LVU254
# int_object.c:330:     int b1 = convert_fbgc_object_to_int(b);
	.loc 1 330 14 is_stmt 0 view .LVU255
	call	convert_fbgc_object_to_int@PLT	#
.LVL109:
	.loc 1 331 5 is_stmt 1 view .LVU256
# int_object.c:331:     return new_fbgc_int_object(a1>b1);
	.loc 1 331 12 is_stmt 0 view .LVU257
	xorl	%edi, %edi	# tmp89
# int_object.c:332: }
	.loc 1 332 1 view .LVU258
	popq	%rdx	#
	.cfi_def_cfa_offset 24
# int_object.c:331:     return new_fbgc_int_object(a1>b1);
	.loc 1 331 12 view .LVU259
	cmpl	%eax, %ebx	# tmp94, a1
# int_object.c:332: }
	.loc 1 332 1 view .LVU260
	popq	%rbx	#
	.cfi_def_cfa_offset 16
.LVL110:
	.loc 1 332 1 view .LVU261
	popq	%rbp	#
	.cfi_def_cfa_offset 8
.LVL111:
# int_object.c:331:     return new_fbgc_int_object(a1>b1);
	.loc 1 331 12 view .LVU262
	setg	%dil	#, tmp89
	jmp	new_fbgc_int_object	#
.LVL112:
	.loc 1 331 12 view .LVU263
	.cfi_endproc
.LFE56:
	.size	operator_GREATER_fbgc_int_object, .-operator_GREATER_fbgc_int_object
	.globl	operator_PIPE_fbgc_int_object
	.type	operator_PIPE_fbgc_int_object, @function
operator_PIPE_fbgc_int_object:
.LVL113:
.LFB57:
	.loc 1 334 98 is_stmt 1 view -0
	.cfi_startproc
	.loc 1 334 98 is_stmt 0 view .LVU265
	endbr64	
	.loc 1 335 5 is_stmt 1 view .LVU266
# int_object.c:334: struct fbgc_object * operator_PIPE_fbgc_int_object(struct fbgc_object * a,struct fbgc_object * b){
	.loc 1 334 98 is_stmt 0 view .LVU267
	pushq	%rbp	#
	.cfi_def_cfa_offset 16
	.cfi_offset 6, -16
	movq	%rsi, %rbp	# tmp94, b
	pushq	%rbx	#
	.cfi_def_cfa_offset 24
	.cfi_offset 3, -24
	pushq	%rax	#
	.cfi_def_cfa_offset 32
# int_object.c:335:     int a1 = convert_fbgc_object_to_int(a);
	.loc 1 335 14 view .LVU268
	call	convert_fbgc_object_to_int@PLT	#
.LVL114:
# int_object.c:336:     int b1 = convert_fbgc_object_to_int(b);
	.loc 1 336 14 view .LVU269
	movq	%rbp, %rdi	# b,
# int_object.c:335:     int a1 = convert_fbgc_object_to_int(a);
	.loc 1 335 14 view .LVU270
	movl	%eax, %ebx	# tmp95, a1
.LVL115:
	.loc 1 336 5 is_stmt 1 view .LVU271
# int_object.c:336:     int b1 = convert_fbgc_object_to_int(b);
	.loc 1 336 14 is_stmt 0 view .LVU272
	call	convert_fbgc_object_to_int@PLT	#
.LVL116:
	.loc 1 337 5 is_stmt 1 view .LVU273
# int_object.c:337:     return new_fbgc_int_object(a1||b1);
	.loc 1 337 12 is_stmt 0 view .LVU274
	xorl	%edi, %edi	# tmp91
# int_object.c:338: }
	.loc 1 338 1 view .LVU275
	popq	%rdx	#
	.cfi_def_cfa_offset 24
# int_object.c:337:     return new_fbgc_int_object(a1||b1);
	.loc 1 337 12 view .LVU276
	orl	%eax, %ebx	# tmp96, a1
.LVL117:
# int_object.c:338: }
	.loc 1 338 1 view .LVU277
	popq	%rbx	#
	.cfi_def_cfa_offset 16
	popq	%rbp	#
	.cfi_def_cfa_offset 8
.LVL118:
# int_object.c:337:     return new_fbgc_int_object(a1||b1);
	.loc 1 337 12 view .LVU278
	setne	%dil	#, tmp91
	jmp	new_fbgc_int_object	#
.LVL119:
	.loc 1 337 12 view .LVU279
	.cfi_endproc
.LFE57:
	.size	operator_PIPE_fbgc_int_object, .-operator_PIPE_fbgc_int_object
	.globl	operator_AMPERSAND_fbgc_int_object
	.type	operator_AMPERSAND_fbgc_int_object, @function
operator_AMPERSAND_fbgc_int_object:
.LVL120:
.LFB58:
	.loc 1 340 103 is_stmt 1 view -0
	.cfi_startproc
	.loc 1 340 103 is_stmt 0 view .LVU281
	endbr64	
	.loc 1 341 5 is_stmt 1 view .LVU282
# int_object.c:340: struct fbgc_object * operator_AMPERSAND_fbgc_int_object(struct fbgc_object * a,struct fbgc_object * b){
	.loc 1 340 103 is_stmt 0 view .LVU283
	pushq	%rbp	#
	.cfi_def_cfa_offset 16
	.cfi_offset 6, -16
	movq	%rsi, %rbp	# tmp98, b
	pushq	%rbx	#
	.cfi_def_cfa_offset 24
	.cfi_offset 3, -24
	pushq	%rax	#
	.cfi_def_cfa_offset 32
# int_object.c:341:     int a1 = convert_fbgc_object_to_int(a);
	.loc 1 341 14 view .LVU284
	call	convert_fbgc_object_to_int@PLT	#
.LVL121:
# int_object.c:342:     int b1 = convert_fbgc_object_to_int(b);
	.loc 1 342 14 view .LVU285
	movq	%rbp, %rdi	# b,
# int_object.c:341:     int a1 = convert_fbgc_object_to_int(a);
	.loc 1 341 14 view .LVU286
	movl	%eax, %ebx	# tmp99, a1
.LVL122:
	.loc 1 342 5 is_stmt 1 view .LVU287
# int_object.c:342:     int b1 = convert_fbgc_object_to_int(b);
	.loc 1 342 14 is_stmt 0 view .LVU288
	call	convert_fbgc_object_to_int@PLT	#
.LVL123:
	.loc 1 343 5 is_stmt 1 view .LVU289
# int_object.c:343:     return new_fbgc_int_object(a1&&b1);
	.loc 1 343 32 is_stmt 0 view .LVU290
	testl	%ebx, %ebx	# a1
	setne	%dl	#, tmp92
# int_object.c:343:     return new_fbgc_int_object(a1&&b1);
	.loc 1 343 12 view .LVU291
	xorl	%edi, %edi	# tmp95
	testl	%eax, %eax	# tmp100
	setne	%dil	#, tmp95
	andl	%edx, %edi	# tmp92, tmp96
# int_object.c:344: }
	.loc 1 344 1 view .LVU292
	popq	%rdx	#
	.cfi_def_cfa_offset 24
	popq	%rbx	#
	.cfi_def_cfa_offset 16
.LVL124:
	.loc 1 344 1 view .LVU293
	popq	%rbp	#
	.cfi_def_cfa_offset 8
.LVL125:
# int_object.c:343:     return new_fbgc_int_object(a1&&b1);
	.loc 1 343 12 view .LVU294
	jmp	new_fbgc_int_object	#
.LVL126:
	.loc 1 343 12 view .LVU295
	.cfi_endproc
.LFE58:
	.size	operator_AMPERSAND_fbgc_int_object, .-operator_AMPERSAND_fbgc_int_object
	.globl	operator_EXCLAMATION_fbgc_int_object
	.type	operator_EXCLAMATION_fbgc_int_object, @function
operator_EXCLAMATION_fbgc_int_object:
.LVL127:
.LFB59:
	.loc 1 347 105 is_stmt 1 view -0
	.cfi_startproc
	.loc 1 347 105 is_stmt 0 view .LVU297
	endbr64	
	.loc 1 348 5 is_stmt 1 view .LVU298
# int_object.c:347: struct fbgc_object * operator_EXCLAMATION_fbgc_int_object(struct fbgc_object * a,struct fbgc_object * b){
	.loc 1 347 105 is_stmt 0 view .LVU299
	pushq	%rax	#
	.cfi_def_cfa_offset 16
# int_object.c:348:     int a1 = convert_fbgc_object_to_int(a);
	.loc 1 348 14 view .LVU300
	call	convert_fbgc_object_to_int@PLT	#
.LVL128:
	.loc 1 349 5 is_stmt 1 view .LVU301
# int_object.c:349:     return new_fbgc_int_object(!a1);
	.loc 1 349 12 is_stmt 0 view .LVU302
	xorl	%edi, %edi	# tmp88
# int_object.c:350: }
	.loc 1 350 1 view .LVU303
	popq	%rdx	#
	.cfi_def_cfa_offset 8
# int_object.c:349:     return new_fbgc_int_object(!a1);
	.loc 1 349 12 view .LVU304
	testl	%eax, %eax	# tmp91
	sete	%dil	#, tmp88
	jmp	new_fbgc_int_object	#
.LVL129:
	.loc 1 349 12 view .LVU305
	.cfi_endproc
.LFE59:
	.size	operator_EXCLAMATION_fbgc_int_object, .-operator_EXCLAMATION_fbgc_int_object
	.globl	operator_TILDE_fbgc_int_object
	.type	operator_TILDE_fbgc_int_object, @function
operator_TILDE_fbgc_int_object:
.LVL130:
.LFB60:
	.loc 1 353 99 is_stmt 1 view -0
	.cfi_startproc
	.loc 1 353 99 is_stmt 0 view .LVU307
	endbr64	
	.loc 1 354 5 is_stmt 1 view .LVU308
# int_object.c:353: struct fbgc_object * operator_TILDE_fbgc_int_object(struct fbgc_object * a,struct fbgc_object * b){
	.loc 1 353 99 is_stmt 0 view .LVU309
	pushq	%rax	#
	.cfi_def_cfa_offset 16
# int_object.c:354:     int a1 = convert_fbgc_object_to_int(a);
	.loc 1 354 14 view .LVU310
	call	convert_fbgc_object_to_int@PLT	#
.LVL131:
	.loc 1 355 5 is_stmt 1 view .LVU311
# int_object.c:356: }
	.loc 1 356 1 is_stmt 0 view .LVU312
	popq	%rdx	#
	.cfi_def_cfa_offset 8
# int_object.c:355:     return new_fbgc_int_object(~a1);
	.loc 1 355 12 view .LVU313
	notl	%eax	# tmp89
.LVL132:
	.loc 1 355 12 view .LVU314
	movl	%eax, %edi	# tmp89, tmp87
	jmp	new_fbgc_int_object	#
.LVL133:
	.loc 1 355 12 view .LVU315
	.cfi_endproc
.LFE60:
	.size	operator_TILDE_fbgc_int_object, .-operator_TILDE_fbgc_int_object
	.globl	operator_UPLUS_fbgc_int_object
	.type	operator_UPLUS_fbgc_int_object, @function
operator_UPLUS_fbgc_int_object:
.LVL134:
.LFB61:
	.loc 1 360 99 is_stmt 1 view -0
	.cfi_startproc
	.loc 1 360 99 is_stmt 0 view .LVU317
	endbr64	
	.loc 1 361 5 is_stmt 1 view .LVU318
# int_object.c:360: struct fbgc_object * operator_UPLUS_fbgc_int_object(struct fbgc_object * a,struct fbgc_object * b){
	.loc 1 360 99 is_stmt 0 view .LVU319
	pushq	%rax	#
	.cfi_def_cfa_offset 16
# int_object.c:361:     int a1 = convert_fbgc_object_to_int(a);
	.loc 1 361 14 view .LVU320
	call	convert_fbgc_object_to_int@PLT	#
.LVL135:
# int_object.c:363: }
	.loc 1 363 1 view .LVU321
	popq	%rdx	#
	.cfi_def_cfa_offset 8
# int_object.c:361:     int a1 = convert_fbgc_object_to_int(a);
	.loc 1 361 14 view .LVU322
	movl	%eax, %edi	# tmp87, a1
.LVL136:
	.loc 1 362 5 is_stmt 1 view .LVU323
# int_object.c:362:     return new_fbgc_int_object(a1);
	.loc 1 362 12 is_stmt 0 view .LVU324
	jmp	new_fbgc_int_object	#
.LVL137:
	.loc 1 362 12 view .LVU325
	.cfi_endproc
.LFE61:
	.size	operator_UPLUS_fbgc_int_object, .-operator_UPLUS_fbgc_int_object
	.globl	operator_UMINUS_fbgc_int_object
	.type	operator_UMINUS_fbgc_int_object, @function
operator_UMINUS_fbgc_int_object:
.LVL138:
.LFB62:
	.loc 1 367 100 is_stmt 1 view -0
	.cfi_startproc
	.loc 1 367 100 is_stmt 0 view .LVU327
	endbr64	
	.loc 1 368 5 is_stmt 1 view .LVU328
# int_object.c:367: struct fbgc_object * operator_UMINUS_fbgc_int_object(struct fbgc_object * a,struct fbgc_object * b){
	.loc 1 367 100 is_stmt 0 view .LVU329
	pushq	%rax	#
	.cfi_def_cfa_offset 16
# int_object.c:368:     int a1 = convert_fbgc_object_to_int(a);
	.loc 1 368 14 view .LVU330
	call	convert_fbgc_object_to_int@PLT	#
.LVL139:
	.loc 1 369 5 is_stmt 1 view .LVU331
# int_object.c:370: }
	.loc 1 370 1 is_stmt 0 view .LVU332
	popq	%rdx	#
	.cfi_def_cfa_offset 8
# int_object.c:369:     return new_fbgc_int_object(-a1);   
	.loc 1 369 12 view .LVU333
	negl	%eax	# tmp89
.LVL140:
	.loc 1 369 12 view .LVU334
	movl	%eax, %edi	# tmp89, tmp87
	jmp	new_fbgc_int_object	#
.LVL141:
	.loc 1 369 12 view .LVU335
	.cfi_endproc
.LFE62:
	.size	operator_UMINUS_fbgc_int_object, .-operator_UMINUS_fbgc_int_object
	.globl	derive_from_new_int_object
	.type	derive_from_new_int_object, @function
derive_from_new_int_object:
.LVL142:
.LFB36:
	.loc 1 14 75 is_stmt 1 view -0
	.cfi_startproc
	.loc 1 14 75 is_stmt 0 view .LVU337
	endbr64	
	.loc 1 15 5 is_stmt 1 view .LVU338
# int_object.c:14: fbgc_object * derive_from_new_int_object(fbgc_token type, int int_content){
	.loc 1 14 75 is_stmt 0 view .LVU339
	pushq	%rbp	#
	.cfi_def_cfa_offset 16
	.cfi_offset 6, -16
	movl	%edi, %ebp	# tmp87, type
# int_object.c:15:     struct fbgc_int_object *into =  (struct fbgc_int_object*) fbgc_malloc(sizeof_fbgc_int_object());
	.loc 1 15 63 view .LVU340
	movl	$13, %edi	#,
.LVL143:
# int_object.c:14: fbgc_object * derive_from_new_int_object(fbgc_token type, int int_content){
	.loc 1 14 75 view .LVU341
	pushq	%rbx	#
	.cfi_def_cfa_offset 24
	.cfi_offset 3, -24
	movl	%esi, %ebx	# tmp88, int_content
	pushq	%rax	#
	.cfi_def_cfa_offset 32
# int_object.c:15:     struct fbgc_int_object *into =  (struct fbgc_int_object*) fbgc_malloc(sizeof_fbgc_int_object());
	.loc 1 15 63 view .LVU342
	call	fbgc_malloc@PLT	#
.LVL144:
	.loc 1 16 5 is_stmt 1 view .LVU343
# int_object.c:16:     into->base.type = type;
	.loc 1 16 21 is_stmt 0 view .LVU344
	movb	%bpl, (%rax)	# type, into_3->base.type
	.loc 1 17 5 is_stmt 1 view .LVU345
# int_object.c:17:     into->content = int_content; 
	.loc 1 17 19 is_stmt 0 view .LVU346
	movl	%ebx, 9(%rax)	# int_content, into_3->content
	.loc 1 18 5 is_stmt 1 view .LVU347
# int_object.c:19: }
	.loc 1 19 1 is_stmt 0 view .LVU348
	popq	%rdx	#
	.cfi_def_cfa_offset 24
	popq	%rbx	#
	.cfi_def_cfa_offset 16
.LVL145:
	.loc 1 19 1 view .LVU349
	popq	%rbp	#
	.cfi_def_cfa_offset 8
	ret	
	.cfi_endproc
.LFE36:
	.size	derive_from_new_int_object, .-derive_from_new_int_object
	.globl	new_fbgc_int_object_from_str
	.type	new_fbgc_int_object_from_str, @function
new_fbgc_int_object_from_str:
.LVL146:
.LFB37:
	.loc 1 23 65 is_stmt 1 view -0
	.cfi_startproc
	.loc 1 23 65 is_stmt 0 view .LVU351
	endbr64	
	.loc 1 25 4 is_stmt 1 view .LVU352
# int_object.c:23: fbgc_object * new_fbgc_int_object_from_str(const char * int_str){
	.loc 1 23 65 is_stmt 0 view .LVU353
	pushq	%rax	#
	.cfi_def_cfa_offset 16
# int_object.c:25:   	return new_fbgc_int_object(strtol(int_str,NULL,10));
	.loc 1 25 31 view .LVU354
	movl	$10, %edx	#,
	xorl	%esi, %esi	#
	call	strtol@PLT	#
.LVL147:
# int_object.c:26: }
	.loc 1 26 1 view .LVU355
	popq	%rdx	#
	.cfi_def_cfa_offset 8
# int_object.c:25:   	return new_fbgc_int_object(strtol(int_str,NULL,10));
	.loc 1 25 31 view .LVU356
	movq	%rax, %rdi	# tmp87, _1
# int_object.c:25:   	return new_fbgc_int_object(strtol(int_str,NULL,10));
	.loc 1 25 11 view .LVU357
	jmp	new_fbgc_int_object	#
.LVL148:
	.cfi_endproc
.LFE37:
	.size	new_fbgc_int_object_from_str, .-new_fbgc_int_object_from_str
	.globl	new_fbgc_int_object_from_substr
	.type	new_fbgc_int_object_from_substr, @function
new_fbgc_int_object_from_substr:
.LVL149:
.LFB38:
	.loc 1 29 119 is_stmt 1 view -0
	.cfi_startproc
	.loc 1 29 119 is_stmt 0 view .LVU359
	endbr64	
	.loc 1 31 5 is_stmt 1 view .LVU360
# int_object.c:29: struct fbgc_object * new_fbgc_int_object_from_substr(const char * int_str_begin,const char * int_str_end,uint8_t base){
	.loc 1 29 119 is_stmt 0 view .LVU361
	pushq	%rax	#
	.cfi_def_cfa_offset 16
# int_object.c:31:     return new_fbgc_int_object(strtol(int_str_begin, NULL,base));
	.loc 1 31 32 view .LVU362
	movzbl	%dl, %edx	# tmp92, base
	.loc 1 31 32 view .LVU363
	xorl	%esi, %esi	#
.LVL150:
	.loc 1 31 32 view .LVU364
	call	strtol@PLT	#
.LVL151:
# int_object.c:32: }
	.loc 1 32 1 view .LVU365
	popq	%rdx	#
	.cfi_def_cfa_offset 8
# int_object.c:31:     return new_fbgc_int_object(strtol(int_str_begin, NULL,base));
	.loc 1 31 32 view .LVU366
	movq	%rax, %rdi	# tmp93, _2
# int_object.c:31:     return new_fbgc_int_object(strtol(int_str_begin, NULL,base));
	.loc 1 31 12 view .LVU367
	jmp	new_fbgc_int_object	#
.LVL152:
	.cfi_endproc
.LFE38:
	.size	new_fbgc_int_object_from_substr, .-new_fbgc_int_object_from_substr
	.globl	operator_fbgc_int_object2
	.type	operator_fbgc_int_object2, @function
operator_fbgc_int_object2:
.LVL153:
.LFB39:
	.loc 1 34 108 is_stmt 1 view -0
	.cfi_startproc
	.loc 1 34 108 is_stmt 0 view .LVU369
	endbr64	
	.loc 1 36 5 is_stmt 1 view .LVU370
# int_object.c:34: struct fbgc_object * operator_fbgc_int_object2(struct fbgc_object * a,struct fbgc_object * b,fbgc_token op){
	.loc 1 34 108 is_stmt 0 view .LVU371
	pushq	%r12	#
	.cfi_def_cfa_offset 16
	.cfi_offset 12, -16
	movq	%rdi, %r12	# tmp151, a
	movq	%rsi, %rdi	# tmp152, b
.LVL154:
	.loc 1 34 108 view .LVU372
	pushq	%rbx	#
	.cfi_def_cfa_offset 24
	.cfi_offset 3, -24
	movl	%edx, %ebx	# tmp153, op
	pushq	%r8	#
	.cfi_def_cfa_offset 32
# int_object.c:36:     int b1 = convert_fbgc_object_to_int(b);
	.loc 1 36 14 view .LVU373
	call	convert_fbgc_object_to_int@PLT	#
.LVL155:
	.loc 1 38 5 is_stmt 1 view .LVU374
	.loc 1 40 1 view .LVU375
	leal	-45(%rbx), %edx	#, tmp121
	cmpb	$9, %dl	#, tmp121
	ja	.L53	#,
	leaq	.L55(%rip), %rsi	#, tmp123
	movzbl	%dl, %edx	# tmp121, tmp122
	movl	%eax, %ecx	# tmp154, b1
	movslq	(%rsi,%rdx,4), %rax	#, tmp125
.LVL156:
	.loc 1 40 1 is_stmt 0 view .LVU376
	addq	%rsi, %rax	# tmp123, tmp126
	notrack jmp	*%rax	# tmp126
	.section	.rodata
	.align 4
	.align 4
.L55:
	.long	.L64-.L55
	.long	.L63-.L55
	.long	.L56-.L55
	.long	.L61-.L55
	.long	.L60-.L55
	.long	.L59-.L55
	.long	.L58-.L55
	.long	.L57-.L55
	.long	.L56-.L55
	.long	.L54-.L55
	.text
.L64:
	.loc 1 44 9 is_stmt 1 view .LVU377
# int_object.c:44:         *c >>= b1;
	.loc 1 44 12 is_stmt 0 view .LVU378
	sarl	%cl, 9(%r12)	# b1, MEM[(int *)a_40(D) + 9B]
	.loc 1 45 9 is_stmt 1 view .LVU379
	jmp	.L53	#
.L63:
	.loc 1 49 9 view .LVU380
# int_object.c:49:         *c <<= b1;
	.loc 1 49 12 is_stmt 0 view .LVU381
	sall	%cl, 9(%r12)	# b1, MEM[(int *)a_40(D) + 9B]
	.loc 1 50 9 is_stmt 1 view .LVU382
	jmp	.L53	#
.L61:
	.loc 1 60 9 view .LVU383
# int_object.c:60:         return new_fbgc_double_object(*c*b1/(*c+b1+0.0)); 
	.loc 1 60 39 is_stmt 0 view .LVU384
	movl	9(%r12), %eax	# MEM[(int *)a_40(D) + 9B], _10
# int_object.c:60:         return new_fbgc_double_object(*c*b1/(*c+b1+0.0)); 
	.loc 1 60 51 view .LVU385
	xorps	%xmm2, %xmm2	# tmp136
# int_object.c:60:         return new_fbgc_double_object(*c*b1/(*c+b1+0.0)); 
	.loc 1 60 41 view .LVU386
	movl	%eax, %edx	# _10, tmp131
	imull	%ecx, %edx	# b1, tmp131
# int_object.c:60:         return new_fbgc_double_object(*c*b1/(*c+b1+0.0)); 
	.loc 1 60 48 view .LVU387
	addl	%eax, %ecx	# _10, tmp133
.LVL157:
# int_object.c:60:         return new_fbgc_double_object(*c*b1/(*c+b1+0.0)); 
	.loc 1 60 51 view .LVU388
	cvtsi2sdl	%ecx, %xmm1	# tmp133, tmp134
# int_object.c:60:         return new_fbgc_double_object(*c*b1/(*c+b1+0.0)); 
	.loc 1 60 16 view .LVU389
	cvtsi2sdl	%edx, %xmm0	# tmp131, tmp132
# int_object.c:60:         return new_fbgc_double_object(*c*b1/(*c+b1+0.0)); 
	.loc 1 60 51 view .LVU390
	addsd	%xmm2, %xmm1	# tmp136, tmp135
	jmp	.L66	#
.LVL158:
.L60:
	.loc 1 64 9 is_stmt 1 view .LVU391
# int_object.c:64:         *c += b1;
	.loc 1 64 12 is_stmt 0 view .LVU392
	addl	%ecx, 9(%r12)	# b1, MEM[(int *)a_40(D) + 9B]
	.loc 1 65 9 is_stmt 1 view .LVU393
	jmp	.L53	#
.L59:
	.loc 1 69 9 view .LVU394
# int_object.c:69:         *c -= b1;
	.loc 1 69 12 is_stmt 0 view .LVU395
	subl	%ecx, 9(%r12)	# b1, MEM[(int *)a_40(D) + 9B]
	.loc 1 70 9 is_stmt 1 view .LVU396
	jmp	.L53	#
.L58:
	.loc 1 74 9 view .LVU397
# int_object.c:74:         *c *= b1;
	.loc 1 74 12 is_stmt 0 view .LVU398
	imull	9(%r12), %ecx	# MEM[(int *)a_40(D) + 9B], tmp138
.LVL159:
	.loc 1 74 12 view .LVU399
	movl	%ecx, 9(%r12)	# tmp138, MEM[(int *)a_40(D) + 9B]
	.loc 1 75 9 is_stmt 1 view .LVU400
	jmp	.L53	#
.LVL160:
.L57:
	.loc 1 79 9 view .LVU401
# int_object.c:79:         return new_fbgc_double_object(((double)*c)/b1);
	.loc 1 79 40 is_stmt 0 view .LVU402
	cvtsi2sdl	9(%r12), %xmm0	# MEM[(int *)a_40(D) + 9B], tmp140
# int_object.c:79:         return new_fbgc_double_object(((double)*c)/b1);
	.loc 1 79 16 view .LVU403
	cvtsi2sdl	%ecx, %xmm1	# b1, tmp141
.LVL161:
.L66:
	.loc 1 79 16 view .LVU404
	divsd	%xmm1, %xmm0	# tmp141, tmp142
# int_object.c:95: }
	.loc 1 95 1 view .LVU405
	popq	%rcx	#
	.cfi_remember_state
	.cfi_def_cfa_offset 24
	popq	%rbx	#
	.cfi_def_cfa_offset 16
	popq	%r12	#
	.cfi_def_cfa_offset 8
.LVL162:
# int_object.c:79:         return new_fbgc_double_object(((double)*c)/b1);
	.loc 1 79 16 view .LVU406
	jmp	new_fbgc_double_object@PLT	#
.LVL163:
.L56:
	.cfi_restore_state
	.loc 1 83 9 is_stmt 1 view .LVU407
# int_object.c:83:         *c = pow(*c,b1);
	.loc 1 83 14 is_stmt 0 view .LVU408
	cvtsi2sdl	9(%r12), %xmm0	# MEM[(int *)a_40(D) + 9B], tmp144
	cvtsi2sdl	%ecx, %xmm1	# b1,
	call	pow@PLT	#
.LVL164:
# int_object.c:83:         *c = pow(*c,b1);
	.loc 1 83 12 view .LVU409
	cvttsd2sil	%xmm0, %eax	# tmp156, tmp145
	movl	%eax, 9(%r12)	# tmp145, MEM[(int *)a_40(D) + 9B]
	.loc 1 84 9 is_stmt 1 view .LVU410
	jmp	.L53	#
.LVL165:
.L54:
	.loc 1 88 9 view .LVU411
# int_object.c:88:         *c %= b1;
	.loc 1 88 12 is_stmt 0 view .LVU412
	movl	9(%r12), %eax	# MEM[(int *)a_40(D) + 9B], MEM[(int *)a_40(D) + 9B]
	cltd
	idivl	%ecx	# b1
	movl	%edx, 9(%r12)	# tmp148, MEM[(int *)a_40(D) + 9B]
	.loc 1 89 9 is_stmt 1 view .LVU413
.LVL166:
.L53:
# int_object.c:95: }
	.loc 1 95 1 is_stmt 0 view .LVU414
	movq	%r12, %rax	# a,
	popq	%rdx	#
	.cfi_def_cfa_offset 24
	popq	%rbx	#
	.cfi_def_cfa_offset 16
	popq	%r12	#
	.cfi_def_cfa_offset 8
.LVL167:
	.loc 1 95 1 view .LVU415
	ret	
	.cfi_endproc
.LFE39:
	.size	operator_fbgc_int_object2, .-operator_fbgc_int_object2
	.globl	operator_fbgc_int_object
	.type	operator_fbgc_int_object, @function
operator_fbgc_int_object:
.LVL168:
.LFB40:
	.loc 1 97 107 is_stmt 1 view -0
	.cfi_startproc
	.loc 1 97 107 is_stmt 0 view .LVU417
	endbr64	
	.loc 1 99 5 is_stmt 1 view .LVU418
# int_object.c:97: struct fbgc_object * operator_fbgc_int_object(struct fbgc_object * a,struct fbgc_object * b,fbgc_token op){
	.loc 1 97 107 is_stmt 0 view .LVU419
	pushq	%r12	#
	.cfi_def_cfa_offset 16
	.cfi_offset 12, -16
	movq	%rsi, %r12	# tmp185, b
	pushq	%rbp	#
	.cfi_def_cfa_offset 24
	.cfi_offset 6, -24
	movl	%edx, %ebp	# tmp186, op
	pushq	%rbx	#
	.cfi_def_cfa_offset 32
	.cfi_offset 3, -32
	subq	$16, %rsp	#,
	.cfi_def_cfa_offset 48
# int_object.c:99:     int a1 = convert_fbgc_object_to_int(a);
	.loc 1 99 14 view .LVU420
	call	convert_fbgc_object_to_int@PLT	#
.LVL169:
# int_object.c:100:     int b1 = convert_fbgc_object_to_int(b);
	.loc 1 100 14 view .LVU421
	movq	%r12, %rdi	# b,
# int_object.c:99:     int a1 = convert_fbgc_object_to_int(a);
	.loc 1 99 14 view .LVU422
	movl	%eax, %ebx	# tmp187, a1
.LVL170:
	.loc 1 100 5 is_stmt 1 view .LVU423
# int_object.c:100:     int b1 = convert_fbgc_object_to_int(b);
	.loc 1 100 14 is_stmt 0 view .LVU424
	call	convert_fbgc_object_to_int@PLT	#
.LVL171:
# int_object.c:104:     struct fbgc_object * cs = new_fbgc_int_object(0);//(operation_type == 0) ? new_fbgc_int_object(0) : a;
	.loc 1 104 31 view .LVU425
	xorl	%edi, %edi	#
# int_object.c:100:     int b1 = convert_fbgc_object_to_int(b);
	.loc 1 100 14 view .LVU426
	movl	%eax, 12(%rsp)	# b1, %sfp
.LVL172:
	.loc 1 104 5 is_stmt 1 view .LVU427
# int_object.c:104:     struct fbgc_object * cs = new_fbgc_int_object(0);//(operation_type == 0) ? new_fbgc_int_object(0) : a;
	.loc 1 104 31 is_stmt 0 view .LVU428
	call	new_fbgc_int_object	#
.LVL173:
	.loc 1 104 31 view .LVU429
	leal	-45(%rbp), %edx	#, tmp131
	movq	%rax, %r12	# tmp189, <retval>
.LVL174:
	.loc 1 106 5 is_stmt 1 view .LVU430
	.loc 1 111 1 view .LVU431
	cmpb	$21, %dl	#, tmp131
	ja	.L68	#,
	leaq	.L71(%rip), %rsi	#, tmp133
	movzbl	%dl, %edx	# tmp131, tmp132
	movl	12(%rsp), %ecx	# %sfp, b1
	movslq	(%rsi,%rdx,4), %rax	#, tmp135
.LVL175:
	.loc 1 111 1 is_stmt 0 view .LVU432
	addq	%rsi, %rax	# tmp133, tmp136
	notrack jmp	*%rax	# tmp136
	.section	.rodata
	.align 4
	.align 4
.L71:
	.long	.L91-.L71
	.long	.L90-.L71
	.long	.L84-.L71
	.long	.L89-.L71
	.long	.L88-.L71
	.long	.L87-.L71
	.long	.L86-.L71
	.long	.L85-.L71
	.long	.L84-.L71
	.long	.L83-.L71
	.long	.L82-.L71
	.long	.L81-.L71
	.long	.L80-.L71
	.long	.L79-.L71
	.long	.L78-.L71
	.long	.L77-.L71
	.long	.L76-.L71
	.long	.L75-.L71
	.long	.L74-.L71
	.long	.L73-.L71
	.long	.L93-.L71
	.long	.L70-.L71
	.text
.L91:
	.loc 1 115 9 is_stmt 1 view .LVU433
# int_object.c:115:         *c = a1>>b1;
	.loc 1 115 16 is_stmt 0 view .LVU434
	sarl	%cl, %ebx	# b1, tmp138
.LVL176:
	.loc 1 115 16 view .LVU435
	jmp	.L93	#
.LVL177:
.L90:
	.loc 1 120 9 is_stmt 1 view .LVU436
# int_object.c:120:         *c = a1<<b1;
	.loc 1 120 16 is_stmt 0 view .LVU437
	sall	%cl, %ebx	# b1, tmp139
.LVL178:
	.loc 1 120 16 view .LVU438
	jmp	.L93	#
.LVL179:
.L89:
	.loc 1 131 9 is_stmt 1 view .LVU439
# int_object.c:131:         return new_fbgc_double_object(a1*b1/(a1+b1+0.0)); 
	.loc 1 131 41 is_stmt 0 view .LVU440
	movl	%ebx, %eax	# a1, tmp140
# int_object.c:131:         return new_fbgc_double_object(a1*b1/(a1+b1+0.0)); 
	.loc 1 131 48 view .LVU441
	addl	%ecx, %ebx	# b1, tmp142
.LVL180:
# int_object.c:131:         return new_fbgc_double_object(a1*b1/(a1+b1+0.0)); 
	.loc 1 131 51 view .LVU442
	xorps	%xmm2, %xmm2	# tmp145
	cvtsi2sdl	%ebx, %xmm1	# tmp142, tmp143
# int_object.c:131:         return new_fbgc_double_object(a1*b1/(a1+b1+0.0)); 
	.loc 1 131 41 view .LVU443
	imull	%ecx, %eax	# b1, tmp140
.LVL181:
# int_object.c:131:         return new_fbgc_double_object(a1*b1/(a1+b1+0.0)); 
	.loc 1 131 16 view .LVU444
	cvtsi2sdl	%eax, %xmm0	# tmp140, tmp141
# int_object.c:131:         return new_fbgc_double_object(a1*b1/(a1+b1+0.0)); 
	.loc 1 131 51 view .LVU445
	addsd	%xmm2, %xmm1	# tmp145, tmp144
	jmp	.L97	#
.LVL182:
.L88:
	.loc 1 135 9 is_stmt 1 view .LVU446
# int_object.c:135:         *c = a1+b1;
	.loc 1 135 16 is_stmt 0 view .LVU447
	addl	%ecx, %ebx	# b1, tmp147
.LVL183:
	.loc 1 135 16 view .LVU448
	jmp	.L93	#
.LVL184:
.L87:
	.loc 1 140 9 is_stmt 1 view .LVU449
# int_object.c:140:         *c = a1-b1;
	.loc 1 140 16 is_stmt 0 view .LVU450
	subl	%ecx, %ebx	# b1, tmp148
.LVL185:
	.loc 1 140 16 view .LVU451
	jmp	.L93	#
.LVL186:
.L86:
	.loc 1 145 9 is_stmt 1 view .LVU452
# int_object.c:145:         *c = a1*b1;
	.loc 1 145 16 is_stmt 0 view .LVU453
	imull	%ecx, %ebx	# b1, tmp149
.LVL187:
	.loc 1 145 16 view .LVU454
	jmp	.L93	#
.LVL188:
.L85:
	.loc 1 150 9 is_stmt 1 view .LVU455
# int_object.c:150:         return new_fbgc_double_object(((double)a1)/b1);
	.loc 1 150 40 is_stmt 0 view .LVU456
	cvtsi2sdl	%ebx, %xmm0	# a1, tmp150
# int_object.c:150:         return new_fbgc_double_object(((double)a1)/b1);
	.loc 1 150 16 view .LVU457
	cvtsi2sdl	%ecx, %xmm1	# b1, tmp151
.LVL189:
.L97:
	.loc 1 150 16 view .LVU458
	divsd	%xmm1, %xmm0	# tmp151, tmp152
# int_object.c:226: }
	.loc 1 226 1 view .LVU459
	addq	$16, %rsp	#,
	.cfi_remember_state
	.cfi_def_cfa_offset 32
	popq	%rbx	#
	.cfi_def_cfa_offset 24
	popq	%rbp	#
	.cfi_def_cfa_offset 16
	popq	%r12	#
	.cfi_def_cfa_offset 8
.LVL190:
# int_object.c:150:         return new_fbgc_double_object(((double)a1)/b1);
	.loc 1 150 16 view .LVU460
	jmp	new_fbgc_double_object@PLT	#
.LVL191:
.L84:
	.cfi_restore_state
	.loc 1 154 9 is_stmt 1 view .LVU461
# int_object.c:154:         *c = pow(a1,b1);
	.loc 1 154 14 is_stmt 0 view .LVU462
	cvtsi2sdl	%ebx, %xmm0	# a1, tmp154
	cvtsi2sdl	%ecx, %xmm1	# b1,
	call	pow@PLT	#
.LVL192:
# int_object.c:154:         *c = pow(a1,b1);
	.loc 1 154 12 view .LVU463
	cvttsd2sil	%xmm0, %eax	# tmp190, tmp155
	jmp	.L94	#
.L83:
	.loc 1 159 9 is_stmt 1 view .LVU464
# int_object.c:159:         *c = a1%b1;
	.loc 1 159 16 is_stmt 0 view .LVU465
	movl	%ebx, %eax	# a1, a1
	cltd
	idivl	%ecx	# b1
# int_object.c:159:         *c = a1%b1;
	.loc 1 159 12 view .LVU466
	movl	%edx, 9(%r12)	# tmp156, MEM[(int *)cs_57 + 9B]
	.loc 1 160 9 is_stmt 1 view .LVU467
	jmp	.L68	#
.L82:
	.loc 1 164 9 view .LVU468
# int_object.c:164:         *c = (a1<=b1);
	.loc 1 164 17 is_stmt 0 view .LVU469
	cmpl	%ecx, %ebx	# b1, a1
	setle	%al	#, tmp158
	jmp	.L95	#
.L81:
	.loc 1 169 9 is_stmt 1 view .LVU470
# int_object.c:169:         *c = (a1 >= b1);
	.loc 1 169 18 is_stmt 0 view .LVU471
	cmpl	%ecx, %ebx	# b1, a1
	setge	%al	#, tmp160
	jmp	.L95	#
.L80:
	.loc 1 174 9 is_stmt 1 view .LVU472
# int_object.c:174:         *c = (a1 == b1);
	.loc 1 174 18 is_stmt 0 view .LVU473
	cmpl	%ecx, %ebx	# b1, a1
	jmp	.L96	#
.L79:
	.loc 1 179 9 is_stmt 1 view .LVU474
# int_object.c:179:         *c = (a1 != b1);
	.loc 1 179 18 is_stmt 0 view .LVU475
	cmpl	%ecx, %ebx	# b1, a1
	jmp	.L98	#
.L78:
	.loc 1 184 9 is_stmt 1 view .LVU476
# int_object.c:184:         *c = (a1<b1);
	.loc 1 184 17 is_stmt 0 view .LVU477
	cmpl	%ecx, %ebx	# b1, a1
	setl	%al	#, tmp166
	jmp	.L95	#
.L77:
	.loc 1 189 9 is_stmt 1 view .LVU478
# int_object.c:189:         *c = (a1>b1);
	.loc 1 189 17 is_stmt 0 view .LVU479
	cmpl	%ecx, %ebx	# b1, a1
	setg	%al	#, tmp168
	jmp	.L95	#
.L76:
	.loc 1 194 9 is_stmt 1 view .LVU480
# int_object.c:194:         *c = (a1 || b1);
	.loc 1 194 18 is_stmt 0 view .LVU481
	orl	%ecx, %ebx	# b1, a1
.LVL193:
.L98:
	.loc 1 194 18 view .LVU482
	setne	%al	#, tmp171
	jmp	.L95	#
.LVL194:
.L75:
	.loc 1 199 9 is_stmt 1 view .LVU483
# int_object.c:199:         *c = (a1 && b1);
	.loc 1 199 15 is_stmt 0 view .LVU484
	testl	%ebx, %ebx	# a1
	setne	%dl	#, tmp174
# int_object.c:199:         *c = (a1 && b1);
	.loc 1 199 18 view .LVU485
	xorl	%eax, %eax	# tmp177
	testl	%ecx, %ecx	# b1
	setne	%al	#, tmp177
	andl	%edx, %eax	# tmp174, tmp178
	jmp	.L94	#
.L74:
	.loc 1 204 9 is_stmt 1 view .LVU486
# int_object.c:204:         *c = (!a1);
	.loc 1 204 15 is_stmt 0 view .LVU487
	testl	%ebx, %ebx	# a1
.L96:
	.loc 1 204 15 view .LVU488
	sete	%al	#, tmp179
.LVL195:
.L95:
	.loc 1 204 15 view .LVU489
	movzbl	%al, %eax	# tmp179, tmp179
.L94:
# int_object.c:204:         *c = (!a1);
	.loc 1 204 12 view .LVU490
	movl	%eax, 9(%r12)	# tmp179, MEM[(int *)cs_57 + 9B]
	.loc 1 205 9 is_stmt 1 view .LVU491
	jmp	.L68	#
.LVL196:
.L73:
	.loc 1 209 9 view .LVU492
# int_object.c:209:         *c = ~a1;
	.loc 1 209 14 is_stmt 0 view .LVU493
	notl	%ebx	# tmp181
.LVL197:
	.loc 1 209 14 view .LVU494
	jmp	.L93	#
.LVL198:
.L70:
	.loc 1 219 9 is_stmt 1 view .LVU495
# int_object.c:219:         *c = -a1;
	.loc 1 219 14 is_stmt 0 view .LVU496
	negl	%ebx	# tmp182
.LVL199:
.L93:
	.loc 1 219 14 view .LVU497
	movl	%ebx, 9(%r12)	# tmp182, MEM[(int *)cs_57 + 9B]
	.loc 1 220 9 is_stmt 1 view .LVU498
.L68:
# int_object.c:226: }
	.loc 1 226 1 is_stmt 0 view .LVU499
	addq	$16, %rsp	#,
	.cfi_def_cfa_offset 32
	movq	%r12, %rax	# <retval>,
	popq	%rbx	#
	.cfi_def_cfa_offset 24
	popq	%rbp	#
	.cfi_def_cfa_offset 16
	popq	%r12	#
	.cfi_def_cfa_offset 8
.LVL200:
	.loc 1 226 1 view .LVU500
	ret	
	.cfi_endproc
.LFE40:
	.size	operator_fbgc_int_object, .-operator_fbgc_int_object
	.section	.rodata.str1.1,"aMS",@progbits,1
.LC1:
	.string	"%d"
	.text
	.globl	print_fbgc_int_object
	.type	print_fbgc_int_object, @function
print_fbgc_int_object:
.LVL201:
.LFB63:
	.loc 1 401 53 is_stmt 1 view -0
	.cfi_startproc
	.loc 1 401 53 is_stmt 0 view .LVU502
	endbr64	
	.loc 1 402 5 is_stmt 1 view .LVU503
	movl	9(%rdi), %edx	# MEM[(struct fbgc_int_object *)obj_3(D)].content, MEM[(struct fbgc_int_object *)obj_3(D)].content
	leaq	.LC1(%rip), %rsi	#,
	movl	$9, %edi	#,
.LVL202:
	.loc 1 402 5 is_stmt 0 view .LVU504
	xorl	%eax, %eax	#
	jmp	cprintf@PLT	#
.LVL203:
	.cfi_endproc
.LFE63:
	.size	print_fbgc_int_object, .-print_fbgc_int_object
	.globl	free_fbgc_int_object
	.type	free_fbgc_int_object, @function
free_fbgc_int_object:
.LVL204:
.LFB64:
	.loc 1 405 52 is_stmt 1 view -0
	.cfi_startproc
	.loc 1 405 52 is_stmt 0 view .LVU506
	endbr64	
	.loc 1 407 1 is_stmt 1 view .LVU507
	ret	
	.cfi_endproc
.LFE64:
	.size	free_fbgc_int_object, .-free_fbgc_int_object
	.globl	fbgc_INT_operators
	.section	.data.rel.local,"aw"
	.align 32
	.type	fbgc_INT_operators, @object
	.size	fbgc_INT_operators, 176
fbgc_INT_operators:
	.quad	operator_R_SHIFT_fbgc_int_object
	.quad	operator_L_SHIFT_fbgc_int_object
	.quad	operator_STARSTAR_fbgc_int_object
	.quad	operator_SLASHSLASH_fbgc_int_object
	.quad	operator_PLUS_fbgc_int_object
	.quad	operator_MINUS_fbgc_int_object
	.quad	operator_STAR_fbgc_int_object
	.quad	operator_SLASH_fbgc_int_object
	.quad	operator_CARET_fbgc_int_object
	.quad	operator_PERCENT_fbgc_int_object
	.quad	operator_LO_EQ_fbgc_int_object
	.quad	operator_GR_EQ_fbgc_int_object
	.quad	operator_EQ_EQ_fbgc_int_object
	.quad	operator_NOT_EQ_fbgc_int_object
	.quad	operator_LOWER_fbgc_int_object
	.quad	operator_GREATER_fbgc_int_object
	.quad	operator_PIPE_fbgc_int_object
	.quad	operator_AMPERSAND_fbgc_int_object
	.quad	operator_EXCLAMATION_fbgc_int_object
	.quad	operator_TILDE_fbgc_int_object
	.quad	operator_UPLUS_fbgc_int_object
	.quad	operator_UMINUS_fbgc_int_object
	.comm	general_symbols,8,8
	.comm	fbgc_memb,33,32
	.text
.Letext0:
	.file 2 "/usr/lib/gcc/x86_64-linux-gnu/9/include/stddef.h"
	.file 3 "/usr/include/x86_64-linux-gnu/bits/types.h"
	.file 4 "/usr/include/x86_64-linux-gnu/bits/stdint-uintn.h"
	.file 5 "/usr/include/x86_64-linux-gnu/bits/types/struct_FILE.h"
	.file 6 "/usr/include/x86_64-linux-gnu/bits/types/FILE.h"
	.file 7 "/usr/include/stdio.h"
	.file 8 "/usr/include/x86_64-linux-gnu/bits/sys_errlist.h"
	.file 9 "/usr/include/math.h"
	.file 10 "/usr/include/time.h"
	.file 11 "/usr/include/signal.h"
	.file 12 "headers/tokens.h"
	.file 13 "headers/fbgc_object.h"
	.file 14 "headers/memory.h"
	.file 15 "headers/int_object.h"
	.file 16 "headers/operator.h"
	.file 17 "headers/symbol_table.h"
	.file 18 "headers/relexer.h"
	.file 19 "headers/error.h"
	.file 20 "headers/double_object.h"
	.file 21 "/usr/include/stdlib.h"
	.file 22 "/usr/include/x86_64-linux-gnu/bits/mathcalls.h"
	.section	.note.GNU-stack,"",@progbits
	.section	.note.gnu.property,"a"
	.align 8
	.long	 1f - 0f
	.long	 4f - 1f
	.long	 5
0:
	.string	 "GNU"
1:
	.align 8
	.long	 0xc0000002
	.long	 3f - 2f
2:
	.long	 0x3
3:
	.align 8
4:
