	.file	"int_object.c"
# GNU C17 (Ubuntu 9.2.1-9ubuntu2) version 9.2.1 20191008 (x86_64-linux-gnu)
#	compiled by GNU C version 9.2.1 20191008, GMP version 6.1.2, MPFR version 4.0.2, MPC version 1.1.0, isl version isl-0.21-GMP

# GGC heuristics: --param ggc-min-expand=100 --param ggc-min-heapsize=131072
# options passed:  -imultiarch x86_64-linux-gnu int_object.c -mtune=generic
# -march=x86-64 -g -Os -fverbose-asm -fasynchronous-unwind-tables
# -fstack-protector-strong -Wformat -Wformat-security
# -fstack-clash-protection -fcf-protection
# options enabled:  -fPIC -fPIE -faggressive-loop-optimizations
# -fassume-phsa -fasynchronous-unwind-tables -fauto-inc-dec
# -fbranch-count-reg -fcaller-saves -fcode-hoisting
# -fcombine-stack-adjustments -fcommon -fcompare-elim -fcprop-registers
# -fcrossjumping -fcse-follow-jumps -fdefer-pop
# -fdelete-null-pointer-checks -fdevirtualize -fdevirtualize-speculatively
# -fdwarf2-cfi-asm -fearly-inlining -feliminate-unused-debug-types
# -fexpensive-optimizations -fforward-propagate -ffp-int-builtin-inexact
# -ffunction-cse -fgcse -fgcse-lm -fgnu-runtime -fgnu-unique
# -fguess-branch-probability -fhoist-adjacent-loads -fident -fif-conversion
# -fif-conversion2 -findirect-inlining -finline -finline-atomics
# -finline-functions -finline-functions-called-once
# -finline-small-functions -fipa-bit-cp -fipa-cp -fipa-icf
# -fipa-icf-functions -fipa-icf-variables -fipa-profile -fipa-pure-const
# -fipa-ra -fipa-reference -fipa-reference-addressable -fipa-sra
# -fipa-stack-alignment -fipa-vrp -fira-hoist-pressure
# -fira-share-save-slots -fira-share-spill-slots
# -fisolate-erroneous-paths-dereference -fivopts -fkeep-static-consts
# -fleading-underscore -flifetime-dse -flra-remat -flto-odr-type-merging
# -fmath-errno -fmerge-constants -fmerge-debug-strings
# -fmove-loop-invariants -fomit-frame-pointer -foptimize-sibling-calls
# -fpartial-inlining -fpeephole -fpeephole2 -fplt -fprefetch-loop-arrays
# -free -freg-struct-return -freorder-blocks -freorder-blocks-and-partition
# -freorder-functions -frerun-cse-after-loop
# -fsched-critical-path-heuristic -fsched-dep-count-heuristic
# -fsched-group-heuristic -fsched-interblock -fsched-last-insn-heuristic
# -fsched-rank-heuristic -fsched-spec -fsched-spec-insn-heuristic
# -fsched-stalled-insns-dep -fschedule-fusion -fschedule-insns2
# -fsemantic-interposition -fshow-column -fshrink-wrap
# -fshrink-wrap-separate -fsigned-zeros -fsplit-ivs-in-unroller
# -fsplit-wide-types -fssa-backprop -fssa-phiopt -fstack-clash-protection
# -fstack-protector-strong -fstdarg-opt -fstore-merging -fstrict-aliasing
# -fstrict-volatile-bitfields -fsync-libcalls -fthread-jumps
# -ftoplevel-reorder -ftrapping-math -ftree-bit-ccp -ftree-builtin-call-dce
# -ftree-ccp -ftree-ch -ftree-coalesce-vars -ftree-copy-prop -ftree-cselim
# -ftree-dce -ftree-dominator-opts -ftree-dse -ftree-forwprop -ftree-fre
# -ftree-loop-if-convert -ftree-loop-im -ftree-loop-ivcanon
# -ftree-loop-optimize -ftree-parallelize-loops= -ftree-phiprop -ftree-pre
# -ftree-pta -ftree-reassoc -ftree-scev-cprop -ftree-sink -ftree-slsr
# -ftree-sra -ftree-switch-conversion -ftree-tail-merge -ftree-ter
# -ftree-vrp -funit-at-a-time -funwind-tables -fvar-tracking
# -fvar-tracking-assignments -fverbose-asm -fzero-initialized-in-bss
# -m128bit-long-double -m64 -m80387 -malign-stringops
# -mavx256-split-unaligned-load -mavx256-split-unaligned-store
# -mfancy-math-387 -mfp-ret-in-387 -mfxsr -mglibc -mieee-fp
# -mlong-double-80 -mmmx -mno-sse4 -mpush-args -mred-zone -msse -msse2
# -mstv -mtls-direct-seg-refs -mvzeroupper

	.text
.Ltext0:
	.globl	operator_SLASHSLASH_fbgc_int_object
	.type	operator_SLASHSLASH_fbgc_int_object, @function
operator_SLASHSLASH_fbgc_int_object:
.LVL0:
.LFB44:
	.file 1 "int_object.c"
	.loc 1 250 104 view -0
	.cfi_startproc
	.loc 1 250 104 is_stmt 0 view .LVU1
	endbr64	
	.loc 1 251 5 is_stmt 1 view .LVU2
# int_object.c:250: struct fbgc_object * operator_SLASHSLASH_fbgc_int_object(struct fbgc_object * a,struct fbgc_object * b){
	.loc 1 250 104 is_stmt 0 view .LVU3
	pushq	%rbp	#
	.cfi_def_cfa_offset 16
	.cfi_offset 6, -16
	movq	%rsi, %rbp	# tmp101, b
	pushq	%rbx	#
	.cfi_def_cfa_offset 24
	.cfi_offset 3, -24
	pushq	%rax	#
	.cfi_def_cfa_offset 32
# int_object.c:251:     int a1 = convert_fbgc_object_to_int(a);
	.loc 1 251 14 view .LVU4
	call	convert_fbgc_object_to_int@PLT	#
.LVL1:
# int_object.c:252:     int b1 = convert_fbgc_object_to_int(b);
	.loc 1 252 14 view .LVU5
	movq	%rbp, %rdi	# b,
# int_object.c:251:     int a1 = convert_fbgc_object_to_int(a);
	.loc 1 251 14 view .LVU6
	movl	%eax, %ebx	# tmp102, a1
.LVL2:
	.loc 1 252 5 is_stmt 1 view .LVU7
# int_object.c:252:     int b1 = convert_fbgc_object_to_int(b);
	.loc 1 252 14 is_stmt 0 view .LVU8
	call	convert_fbgc_object_to_int@PLT	#
.LVL3:
	.loc 1 253 5 is_stmt 1 view .LVU9
# int_object.c:253:     return new_fbgc_double_object(a1*b1/(a1+b1+0.0)); 
	.loc 1 253 37 is_stmt 0 view .LVU10
	movl	%ebx, %edx	# a1, tmp93
# int_object.c:253:     return new_fbgc_double_object(a1*b1/(a1+b1+0.0)); 
	.loc 1 253 47 view .LVU11
	xorps	%xmm2, %xmm2	# tmp98
# int_object.c:253:     return new_fbgc_double_object(a1*b1/(a1+b1+0.0)); 
	.loc 1 253 44 view .LVU12
	addl	%eax, %ebx	# b1, tmp95
.LVL4:
# int_object.c:253:     return new_fbgc_double_object(a1*b1/(a1+b1+0.0)); 
	.loc 1 253 37 view .LVU13
	imull	%eax, %edx	# b1, tmp93
.LVL5:
# int_object.c:253:     return new_fbgc_double_object(a1*b1/(a1+b1+0.0)); 
	.loc 1 253 47 view .LVU14
	cvtsi2sdl	%ebx, %xmm1	# tmp95, tmp96
# int_object.c:253:     return new_fbgc_double_object(a1*b1/(a1+b1+0.0)); 
	.loc 1 253 12 view .LVU15
	cvtsi2sdl	%edx, %xmm0	# tmp93, tmp94
# int_object.c:254: }
	.loc 1 254 1 view .LVU16
	popq	%rdx	#
	.cfi_def_cfa_offset 24
	popq	%rbx	#
	.cfi_def_cfa_offset 16
	popq	%rbp	#
	.cfi_def_cfa_offset 8
.LVL6:
# int_object.c:253:     return new_fbgc_double_object(a1*b1/(a1+b1+0.0)); 
	.loc 1 253 47 view .LVU17
	addsd	%xmm2, %xmm1	# tmp98, tmp97
# int_object.c:253:     return new_fbgc_double_object(a1*b1/(a1+b1+0.0)); 
	.loc 1 253 12 view .LVU18
	divsd	%xmm1, %xmm0	# tmp97, tmp99
	jmp	new_fbgc_double_object@PLT	#
.LVL7:
	.loc 1 253 12 view .LVU19
	.cfi_endproc
.LFE44:
	.size	operator_SLASHSLASH_fbgc_int_object, .-operator_SLASHSLASH_fbgc_int_object
	.globl	operator_SLASH_fbgc_int_object
	.type	operator_SLASH_fbgc_int_object, @function
operator_SLASH_fbgc_int_object:
.LVL8:
.LFB48:
	.loc 1 276 99 is_stmt 1 view -0
	.cfi_startproc
	.loc 1 276 99 is_stmt 0 view .LVU21
	endbr64	
	.loc 1 277 5 is_stmt 1 view .LVU22
# int_object.c:276: struct fbgc_object * operator_SLASH_fbgc_int_object(struct fbgc_object * a,struct fbgc_object * b){
	.loc 1 276 99 is_stmt 0 view .LVU23
	pushq	%rbp	#
	.cfi_def_cfa_offset 16
	.cfi_offset 6, -16
	movq	%rsi, %rbp	# tmp94, b
	pushq	%rbx	#
	.cfi_def_cfa_offset 24
	.cfi_offset 3, -24
	pushq	%rax	#
	.cfi_def_cfa_offset 32
# int_object.c:277:     int a1 = convert_fbgc_object_to_int(a);
	.loc 1 277 14 view .LVU24
	call	convert_fbgc_object_to_int@PLT	#
.LVL9:
# int_object.c:278:     int b1 = convert_fbgc_object_to_int(b);
	.loc 1 278 14 view .LVU25
	movq	%rbp, %rdi	# b,
# int_object.c:277:     int a1 = convert_fbgc_object_to_int(a);
	.loc 1 277 14 view .LVU26
	movl	%eax, %ebx	# tmp95, a1
.LVL10:
	.loc 1 278 5 is_stmt 1 view .LVU27
# int_object.c:278:     int b1 = convert_fbgc_object_to_int(b);
	.loc 1 278 14 is_stmt 0 view .LVU28
	call	convert_fbgc_object_to_int@PLT	#
.LVL11:
	.loc 1 279 5 is_stmt 1 view .LVU29
# int_object.c:279:     return new_fbgc_double_object(((double)a1)/b1);
	.loc 1 279 36 is_stmt 0 view .LVU30
	cvtsi2sdl	%ebx, %xmm0	# a1, tmp90
# int_object.c:280: }
	.loc 1 280 1 view .LVU31
	popq	%rdx	#
	.cfi_def_cfa_offset 24
	popq	%rbx	#
	.cfi_def_cfa_offset 16
.LVL12:
# int_object.c:279:     return new_fbgc_double_object(((double)a1)/b1);
	.loc 1 279 12 view .LVU32
	cvtsi2sdl	%eax, %xmm1	# tmp96, tmp91
# int_object.c:280: }
	.loc 1 280 1 view .LVU33
	popq	%rbp	#
	.cfi_def_cfa_offset 8
.LVL13:
# int_object.c:279:     return new_fbgc_double_object(((double)a1)/b1);
	.loc 1 279 12 view .LVU34
	divsd	%xmm1, %xmm0	# tmp91, tmp92
	jmp	new_fbgc_double_object@PLT	#
.LVL14:
	.loc 1 279 12 view .LVU35
	.cfi_endproc
.LFE48:
	.size	operator_SLASH_fbgc_int_object, .-operator_SLASH_fbgc_int_object
	.globl	new_fbgc_int_object
	.type	new_fbgc_int_object, @function
new_fbgc_int_object:
.LVL15:
.LFB35:
	.loc 1 5 51 is_stmt 1 view -0
	.cfi_startproc
	.loc 1 5 51 is_stmt 0 view .LVU37
	endbr64	
	.loc 1 6 2 is_stmt 1 view .LVU38
# int_object.c:5: fbgc_object * new_fbgc_int_object(int int_content){
	.loc 1 5 51 is_stmt 0 view .LVU39
	pushq	%rbx	#
	.cfi_def_cfa_offset 16
	.cfi_offset 3, -16
# int_object.c:5: fbgc_object * new_fbgc_int_object(int int_content){
	.loc 1 5 51 view .LVU40
	movl	%edi, %ebx	# tmp85, int_content
# int_object.c:6: 	struct fbgc_int_object *into =  (struct fbgc_int_object*) fbgc_malloc(sizeof_fbgc_int_object());
	.loc 1 6 60 view .LVU41
	movl	$13, %edi	#,
.LVL16:
	.loc 1 6 60 view .LVU42
	call	fbgc_malloc@PLT	#
.LVL17:
	.loc 1 7 5 is_stmt 1 view .LVU43
# int_object.c:7:     into->base.type = INT;
	.loc 1 7 21 is_stmt 0 view .LVU44
	movb	$3, (%rax)	#, into_3->base.type
	.loc 1 9 5 is_stmt 1 view .LVU45
# int_object.c:9:     into->content = int_content; 
	.loc 1 9 19 is_stmt 0 view .LVU46
	movl	%ebx, 9(%rax)	# int_content, into_3->content
	.loc 1 10 5 is_stmt 1 view .LVU47
# int_object.c:11: }
	.loc 1 11 1 is_stmt 0 view .LVU48
	popq	%rbx	#
	.cfi_def_cfa_offset 8
.LVL18:
	.loc 1 11 1 view .LVU49
	ret	
	.cfi_endproc
.LFE35:
	.size	new_fbgc_int_object, .-new_fbgc_int_object
	.globl	operator_R_SHIFT_fbgc_int_object
	.type	operator_R_SHIFT_fbgc_int_object, @function
operator_R_SHIFT_fbgc_int_object:
.LVL19:
.LFB41:
	.loc 1 229 101 is_stmt 1 view -0
	.cfi_startproc
	.loc 1 229 101 is_stmt 0 view .LVU51
	endbr64	
	.loc 1 230 5 is_stmt 1 view .LVU52
# int_object.c:229: struct fbgc_object * operator_R_SHIFT_fbgc_int_object(struct fbgc_object * a,struct fbgc_object * b){
	.loc 1 229 101 is_stmt 0 view .LVU53
	pushq	%rbp	#
	.cfi_def_cfa_offset 16
	.cfi_offset 6, -16
	movq	%rsi, %rbp	# tmp90, b
	pushq	%rbx	#
	.cfi_def_cfa_offset 24
	.cfi_offset 3, -24
	pushq	%rax	#
	.cfi_def_cfa_offset 32
# int_object.c:230:     int a1 = convert_fbgc_object_to_int(a);
	.loc 1 230 14 view .LVU54
	call	convert_fbgc_object_to_int@PLT	#
.LVL20:
# int_object.c:231:     int b1 = convert_fbgc_object_to_int(b);
	.loc 1 231 14 view .LVU55
	movq	%rbp, %rdi	# b,
# int_object.c:230:     int a1 = convert_fbgc_object_to_int(a);
	.loc 1 230 14 view .LVU56
	movl	%eax, %ebx	# tmp91, a1
.LVL21:
	.loc 1 231 5 is_stmt 1 view .LVU57
# int_object.c:231:     int b1 = convert_fbgc_object_to_int(b);
	.loc 1 231 14 is_stmt 0 view .LVU58
	call	convert_fbgc_object_to_int@PLT	#
.LVL22:
	.loc 1 232 5 is_stmt 1 view .LVU59
# int_object.c:233: }
	.loc 1 233 1 is_stmt 0 view .LVU60
	popq	%rdx	#
	.cfi_def_cfa_offset 24
# int_object.c:232:     return new_fbgc_int_object(a1>>b1);   
	.loc 1 232 12 view .LVU61
	movl	%eax, %ecx	# tmp92, tmp94
	sarl	%cl, %ebx	# tmp94, a1
.LVL23:
	.loc 1 232 12 view .LVU62
	movl	%ebx, %edi	# a1, tmp88
# int_object.c:233: }
	.loc 1 233 1 view .LVU63
	popq	%rbx	#
	.cfi_def_cfa_offset 16
	popq	%rbp	#
	.cfi_def_cfa_offset 8
.LVL24:
# int_object.c:232:     return new_fbgc_int_object(a1>>b1);   
	.loc 1 232 12 view .LVU64
	jmp	new_fbgc_int_object	#
.LVL25:
	.loc 1 232 12 view .LVU65
	.cfi_endproc
.LFE41:
	.size	operator_R_SHIFT_fbgc_int_object, .-operator_R_SHIFT_fbgc_int_object
	.globl	operator_L_SHIFT_fbgc_int_object
	.type	operator_L_SHIFT_fbgc_int_object, @function
operator_L_SHIFT_fbgc_int_object:
.LVL26:
.LFB42:
	.loc 1 236 101 is_stmt 1 view -0
	.cfi_startproc
	.loc 1 236 101 is_stmt 0 view .LVU67
	endbr64	
	.loc 1 237 5 is_stmt 1 view .LVU68
# int_object.c:236: struct fbgc_object * operator_L_SHIFT_fbgc_int_object(struct fbgc_object * a,struct fbgc_object * b){
	.loc 1 236 101 is_stmt 0 view .LVU69
	pushq	%rbp	#
	.cfi_def_cfa_offset 16
	.cfi_offset 6, -16
	movq	%rsi, %rbp	# tmp90, b
	pushq	%rbx	#
	.cfi_def_cfa_offset 24
	.cfi_offset 3, -24
	pushq	%rax	#
	.cfi_def_cfa_offset 32
# int_object.c:237:     int a1 = convert_fbgc_object_to_int(a);
	.loc 1 237 14 view .LVU70
	call	convert_fbgc_object_to_int@PLT	#
.LVL27:
# int_object.c:238:     int b1 = convert_fbgc_object_to_int(b);
	.loc 1 238 14 view .LVU71
	movq	%rbp, %rdi	# b,
# int_object.c:237:     int a1 = convert_fbgc_object_to_int(a);
	.loc 1 237 14 view .LVU72
	movl	%eax, %ebx	# tmp91, a1
.LVL28:
	.loc 1 238 5 is_stmt 1 view .LVU73
# int_object.c:238:     int b1 = convert_fbgc_object_to_int(b);
	.loc 1 238 14 is_stmt 0 view .LVU74
	call	convert_fbgc_object_to_int@PLT	#
.LVL29:
	.loc 1 239 5 is_stmt 1 view .LVU75
# int_object.c:240: }
	.loc 1 240 1 is_stmt 0 view .LVU76
	popq	%rdx	#
	.cfi_def_cfa_offset 24
# int_object.c:239:     return new_fbgc_int_object(a1<<b1);
	.loc 1 239 12 view .LVU77
	movl	%eax, %ecx	# tmp92, tmp94
	sall	%cl, %ebx	# tmp94, a1
.LVL30:
	.loc 1 239 12 view .LVU78
	movl	%ebx, %edi	# a1, tmp88
# int_object.c:240: }
	.loc 1 240 1 view .LVU79
	popq	%rbx	#
	.cfi_def_cfa_offset 16
	popq	%rbp	#
	.cfi_def_cfa_offset 8
.LVL31:
# int_object.c:239:     return new_fbgc_int_object(a1<<b1);
	.loc 1 239 12 view .LVU80
	jmp	new_fbgc_int_object	#
.LVL32:
	.loc 1 239 12 view .LVU81
	.cfi_endproc
.LFE42:
	.size	operator_L_SHIFT_fbgc_int_object, .-operator_L_SHIFT_fbgc_int_object
	.globl	operator_STARSTAR_fbgc_int_object
	.type	operator_STARSTAR_fbgc_int_object, @function
operator_STARSTAR_fbgc_int_object:
.LVL33:
.LFB43:
	.loc 1 243 102 is_stmt 1 view -0
	.cfi_startproc
	.loc 1 243 102 is_stmt 0 view .LVU83
	endbr64	
	.loc 1 244 5 is_stmt 1 view .LVU84
# int_object.c:243: struct fbgc_object * operator_STARSTAR_fbgc_int_object(struct fbgc_object * a,struct fbgc_object * b){
	.loc 1 243 102 is_stmt 0 view .LVU85
	pushq	%rbp	#
	.cfi_def_cfa_offset 16
	.cfi_offset 6, -16
	movq	%rsi, %rbp	# tmp95, b
	pushq	%rbx	#
	.cfi_def_cfa_offset 24
	.cfi_offset 3, -24
	pushq	%rax	#
	.cfi_def_cfa_offset 32
# int_object.c:244:     int a1 = convert_fbgc_object_to_int(a);
	.loc 1 244 14 view .LVU86
	call	convert_fbgc_object_to_int@PLT	#
.LVL34:
# int_object.c:245:     int b1 = convert_fbgc_object_to_int(b);
	.loc 1 245 14 view .LVU87
	movq	%rbp, %rdi	# b,
# int_object.c:244:     int a1 = convert_fbgc_object_to_int(a);
	.loc 1 244 14 view .LVU88
	movl	%eax, %ebx	# tmp96, a1
.LVL35:
	.loc 1 245 5 is_stmt 1 view .LVU89
# int_object.c:245:     int b1 = convert_fbgc_object_to_int(b);
	.loc 1 245 14 is_stmt 0 view .LVU90
	call	convert_fbgc_object_to_int@PLT	#
.LVL36:
	.loc 1 246 5 is_stmt 1 view .LVU91
# int_object.c:246:     return new_fbgc_int_object(pow(a1,b1));
	.loc 1 246 32 is_stmt 0 view .LVU92
	cvtsi2sdl	%ebx, %xmm0	# a1, tmp92
	cvtsi2sdl	%eax, %xmm1	# tmp97,
	call	pow@PLT	#
.LVL37:
# int_object.c:247: }
	.loc 1 247 1 view .LVU93
	popq	%rdx	#
	.cfi_def_cfa_offset 24
	popq	%rbx	#
	.cfi_def_cfa_offset 16
.LVL38:
# int_object.c:246:     return new_fbgc_int_object(pow(a1,b1));
	.loc 1 246 12 view .LVU94
	cvttsd2sil	%xmm0, %edi	# tmp98, tmp93
# int_object.c:247: }
	.loc 1 247 1 view .LVU95
	popq	%rbp	#
	.cfi_def_cfa_offset 8
.LVL39:
# int_object.c:246:     return new_fbgc_int_object(pow(a1,b1));
	.loc 1 246 12 view .LVU96
	jmp	new_fbgc_int_object	#
.LVL40:
	.cfi_endproc
.LFE43:
	.size	operator_STARSTAR_fbgc_int_object, .-operator_STARSTAR_fbgc_int_object
	.globl	operator_CARET_fbgc_int_object
	.type	operator_CARET_fbgc_int_object, @function
operator_CARET_fbgc_int_object:
.LFB66:
	.cfi_startproc
	endbr64	
	jmp	operator_STARSTAR_fbgc_int_object	#
	.cfi_endproc
.LFE66:
	.size	operator_CARET_fbgc_int_object, .-operator_CARET_fbgc_int_object
	.globl	operator_PLUS_fbgc_int_object
	.type	operator_PLUS_fbgc_int_object, @function
operator_PLUS_fbgc_int_object:
.LVL41:
.LFB45:
	.loc 1 257 98 is_stmt 1 view -0
	.cfi_startproc
	.loc 1 257 98 is_stmt 0 view .LVU98
	endbr64	
	.loc 1 258 5 is_stmt 1 view .LVU99
# int_object.c:257: struct fbgc_object * operator_PLUS_fbgc_int_object(struct fbgc_object * a,struct fbgc_object * b){
	.loc 1 257 98 is_stmt 0 view .LVU100
	pushq	%rbp	#
	.cfi_def_cfa_offset 16
	.cfi_offset 6, -16
	movq	%rsi, %rbp	# tmp90, b
	pushq	%rbx	#
	.cfi_def_cfa_offset 24
	.cfi_offset 3, -24
	pushq	%rax	#
	.cfi_def_cfa_offset 32
# int_object.c:258:     int a1 = convert_fbgc_object_to_int(a);
	.loc 1 258 14 view .LVU101
	call	convert_fbgc_object_to_int@PLT	#
.LVL42:
# int_object.c:259:     int b1 = convert_fbgc_object_to_int(b);
	.loc 1 259 14 view .LVU102
	movq	%rbp, %rdi	# b,
# int_object.c:258:     int a1 = convert_fbgc_object_to_int(a);
	.loc 1 258 14 view .LVU103
	movl	%eax, %ebx	# tmp91, a1
.LVL43:
	.loc 1 259 5 is_stmt 1 view .LVU104
# int_object.c:259:     int b1 = convert_fbgc_object_to_int(b);
	.loc 1 259 14 is_stmt 0 view .LVU105
	call	convert_fbgc_object_to_int@PLT	#
.LVL44:
	.loc 1 260 5 is_stmt 1 view .LVU106
# int_object.c:261: }
	.loc 1 261 1 is_stmt 0 view .LVU107
	popq	%rdx	#
	.cfi_def_cfa_offset 24
# int_object.c:260:     return new_fbgc_int_object(a1+b1);   
	.loc 1 260 12 view .LVU108
	leal	(%rbx,%rax), %edi	#, tmp88
# int_object.c:261: }
	.loc 1 261 1 view .LVU109
	popq	%rbx	#
	.cfi_def_cfa_offset 16
.LVL45:
	.loc 1 261 1 view .LVU110
	popq	%rbp	#
	.cfi_def_cfa_offset 8
.LVL46:
# int_object.c:260:     return new_fbgc_int_object(a1+b1);   
	.loc 1 260 12 view .LVU111
	jmp	new_fbgc_int_object	#
.LVL47:
	.loc 1 260 12 view .LVU112
	.cfi_endproc
.LFE45:
	.size	operator_PLUS_fbgc_int_object, .-operator_PLUS_fbgc_int_object
	.globl	operator_MINUS_fbgc_int_object
	.type	operator_MINUS_fbgc_int_object, @function
operator_MINUS_fbgc_int_object:
.LVL48:
.LFB46:
	.loc 1 264 99 is_stmt 1 view -0
	.cfi_startproc
	.loc 1 264 99 is_stmt 0 view .LVU114
	endbr64	
	.loc 1 265 5 is_stmt 1 view .LVU115
# int_object.c:264: struct fbgc_object * operator_MINUS_fbgc_int_object(struct fbgc_object * a,struct fbgc_object * b){
	.loc 1 264 99 is_stmt 0 view .LVU116
	pushq	%rbp	#
	.cfi_def_cfa_offset 16
	.cfi_offset 6, -16
	movq	%rsi, %rbp	# tmp90, b
	pushq	%rbx	#
	.cfi_def_cfa_offset 24
	.cfi_offset 3, -24
	pushq	%rax	#
	.cfi_def_cfa_offset 32
# int_object.c:265:     int a1 = convert_fbgc_object_to_int(a);
	.loc 1 265 14 view .LVU117
	call	convert_fbgc_object_to_int@PLT	#
.LVL49:
# int_object.c:266:     int b1 = convert_fbgc_object_to_int(b);
	.loc 1 266 14 view .LVU118
	movq	%rbp, %rdi	# b,
# int_object.c:265:     int a1 = convert_fbgc_object_to_int(a);
	.loc 1 265 14 view .LVU119
	movl	%eax, %ebx	# tmp91, a1
.LVL50:
	.loc 1 266 5 is_stmt 1 view .LVU120
# int_object.c:266:     int b1 = convert_fbgc_object_to_int(b);
	.loc 1 266 14 is_stmt 0 view .LVU121
	call	convert_fbgc_object_to_int@PLT	#
.LVL51:
	.loc 1 267 5 is_stmt 1 view .LVU122
# int_object.c:268: }
	.loc 1 268 1 is_stmt 0 view .LVU123
	popq	%rdx	#
	.cfi_def_cfa_offset 24
# int_object.c:267:     return new_fbgc_int_object(a1-b1);
	.loc 1 267 12 view .LVU124
	subl	%eax, %ebx	# tmp92, a1
.LVL52:
	.loc 1 267 12 view .LVU125
	movl	%ebx, %edi	# a1, tmp88
# int_object.c:268: }
	.loc 1 268 1 view .LVU126
	popq	%rbx	#
	.cfi_def_cfa_offset 16
	popq	%rbp	#
	.cfi_def_cfa_offset 8
.LVL53:
# int_object.c:267:     return new_fbgc_int_object(a1-b1);
	.loc 1 267 12 view .LVU127
	jmp	new_fbgc_int_object	#
.LVL54:
	.loc 1 267 12 view .LVU128
	.cfi_endproc
.LFE46:
	.size	operator_MINUS_fbgc_int_object, .-operator_MINUS_fbgc_int_object
	.globl	operator_STAR_fbgc_int_object
	.type	operator_STAR_fbgc_int_object, @function
operator_STAR_fbgc_int_object:
.LVL55:
.LFB47:
	.loc 1 270 98 is_stmt 1 view -0
	.cfi_startproc
	.loc 1 270 98 is_stmt 0 view .LVU130
	endbr64	
	.loc 1 271 5 is_stmt 1 view .LVU131
# int_object.c:270: struct fbgc_object * operator_STAR_fbgc_int_object(struct fbgc_object * a,struct fbgc_object * b){
	.loc 1 270 98 is_stmt 0 view .LVU132
	pushq	%rbp	#
	.cfi_def_cfa_offset 16
	.cfi_offset 6, -16
	movq	%rsi, %rbp	# tmp90, b
	pushq	%rbx	#
	.cfi_def_cfa_offset 24
	.cfi_offset 3, -24
	pushq	%rax	#
	.cfi_def_cfa_offset 32
# int_object.c:271:     int a1 = convert_fbgc_object_to_int(a);
	.loc 1 271 14 view .LVU133
	call	convert_fbgc_object_to_int@PLT	#
.LVL56:
# int_object.c:272:     int b1 = convert_fbgc_object_to_int(b);
	.loc 1 272 14 view .LVU134
	movq	%rbp, %rdi	# b,
# int_object.c:271:     int a1 = convert_fbgc_object_to_int(a);
	.loc 1 271 14 view .LVU135
	movl	%eax, %ebx	# tmp91, a1
.LVL57:
	.loc 1 272 5 is_stmt 1 view .LVU136
# int_object.c:272:     int b1 = convert_fbgc_object_to_int(b);
	.loc 1 272 14 is_stmt 0 view .LVU137
	call	convert_fbgc_object_to_int@PLT	#
.LVL58:
	.loc 1 273 5 is_stmt 1 view .LVU138
# int_object.c:274: }
	.loc 1 274 1 is_stmt 0 view .LVU139
	popq	%rdx	#
	.cfi_def_cfa_offset 24
# int_object.c:273:     return new_fbgc_int_object(a1*b1);
	.loc 1 273 12 view .LVU140
	imull	%eax, %ebx	# tmp92, a1
.LVL59:
	.loc 1 273 12 view .LVU141
	movl	%ebx, %edi	# a1, tmp88
# int_object.c:274: }
	.loc 1 274 1 view .LVU142
	popq	%rbx	#
	.cfi_def_cfa_offset 16
	popq	%rbp	#
	.cfi_def_cfa_offset 8
.LVL60:
# int_object.c:273:     return new_fbgc_int_object(a1*b1);
	.loc 1 273 12 view .LVU143
	jmp	new_fbgc_int_object	#
.LVL61:
	.loc 1 273 12 view .LVU144
	.cfi_endproc
.LFE47:
	.size	operator_STAR_fbgc_int_object, .-operator_STAR_fbgc_int_object
	.globl	operator_PERCENT_fbgc_int_object
	.type	operator_PERCENT_fbgc_int_object, @function
operator_PERCENT_fbgc_int_object:
.LVL62:
.LFB50:
	.loc 1 290 101 is_stmt 1 view -0
	.cfi_startproc
	.loc 1 290 101 is_stmt 0 view .LVU146
	endbr64	
	.loc 1 291 5 is_stmt 1 view .LVU147
# int_object.c:290: struct fbgc_object * operator_PERCENT_fbgc_int_object(struct fbgc_object * a,struct fbgc_object * b){
	.loc 1 290 101 is_stmt 0 view .LVU148
	pushq	%rbp	#
	.cfi_def_cfa_offset 16
	.cfi_offset 6, -16
	movq	%rsi, %rbp	# tmp92, b
	pushq	%rbx	#
	.cfi_def_cfa_offset 24
	.cfi_offset 3, -24
	pushq	%rax	#
	.cfi_def_cfa_offset 32
# int_object.c:291:     int a1 = convert_fbgc_object_to_int(a);
	.loc 1 291 14 view .LVU149
	call	convert_fbgc_object_to_int@PLT	#
.LVL63:
# int_object.c:292:     int b1 = convert_fbgc_object_to_int(b);
	.loc 1 292 14 view .LVU150
	movq	%rbp, %rdi	# b,
# int_object.c:291:     int a1 = convert_fbgc_object_to_int(a);
	.loc 1 291 14 view .LVU151
	movl	%eax, %ebx	# tmp93, a1
.LVL64:
	.loc 1 292 5 is_stmt 1 view .LVU152
# int_object.c:292:     int b1 = convert_fbgc_object_to_int(b);
	.loc 1 292 14 is_stmt 0 view .LVU153
	call	convert_fbgc_object_to_int@PLT	#
.LVL65:
	.loc 1 292 14 view .LVU154
	movl	%eax, %r8d	#, tmp94
.LVL66:
	.loc 1 293 5 is_stmt 1 view .LVU155
# int_object.c:293:     return new_fbgc_int_object(a1%b1);
	.loc 1 293 12 is_stmt 0 view .LVU156
	movl	%ebx, %eax	# a1, a1
.LVL67:
	.loc 1 293 12 view .LVU157
	cltd
	idivl	%r8d	# tmp94
	movl	%edx, %edi	# tmp89, tmp89
# int_object.c:294: }
	.loc 1 294 1 view .LVU158
	popq	%rdx	#
	.cfi_def_cfa_offset 24
	popq	%rbx	#
	.cfi_def_cfa_offset 16
.LVL68:
	.loc 1 294 1 view .LVU159
	popq	%rbp	#
	.cfi_def_cfa_offset 8
.LVL69:
# int_object.c:293:     return new_fbgc_int_object(a1%b1);
	.loc 1 293 12 view .LVU160
	jmp	new_fbgc_int_object	#
.LVL70:
	.loc 1 293 12 view .LVU161
	.cfi_endproc
.LFE50:
	.size	operator_PERCENT_fbgc_int_object, .-operator_PERCENT_fbgc_int_object
	.globl	operator_LO_EQ_fbgc_int_object
	.type	operator_LO_EQ_fbgc_int_object, @function
operator_LO_EQ_fbgc_int_object:
.LVL71:
.LFB51:
	.loc 1 297 99 is_stmt 1 view -0
	.cfi_startproc
	.loc 1 297 99 is_stmt 0 view .LVU163
	endbr64	
	.loc 1 298 5 is_stmt 1 view .LVU164
# int_object.c:297: struct fbgc_object * operator_LO_EQ_fbgc_int_object(struct fbgc_object * a,struct fbgc_object * b){
	.loc 1 297 99 is_stmt 0 view .LVU165
	pushq	%rbp	#
	.cfi_def_cfa_offset 16
	.cfi_offset 6, -16
	movq	%rsi, %rbp	# tmp92, b
	pushq	%rbx	#
	.cfi_def_cfa_offset 24
	.cfi_offset 3, -24
	pushq	%rax	#
	.cfi_def_cfa_offset 32
# int_object.c:298:     int a1 = convert_fbgc_object_to_int(a);
	.loc 1 298 14 view .LVU166
	call	convert_fbgc_object_to_int@PLT	#
.LVL72:
# int_object.c:299:     int b1 = convert_fbgc_object_to_int(b);
	.loc 1 299 14 view .LVU167
	movq	%rbp, %rdi	# b,
# int_object.c:298:     int a1 = convert_fbgc_object_to_int(a);
	.loc 1 298 14 view .LVU168
	movl	%eax, %ebx	# tmp93, a1
.LVL73:
	.loc 1 299 5 is_stmt 1 view .LVU169
# int_object.c:299:     int b1 = convert_fbgc_object_to_int(b);
	.loc 1 299 14 is_stmt 0 view .LVU170
	call	convert_fbgc_object_to_int@PLT	#
.LVL74:
	.loc 1 300 5 is_stmt 1 view .LVU171
# int_object.c:300:     return new_fbgc_int_object(a1<=b1);   
	.loc 1 300 12 is_stmt 0 view .LVU172
	xorl	%edi, %edi	# tmp89
# int_object.c:301: }
	.loc 1 301 1 view .LVU173
	popq	%rdx	#
	.cfi_def_cfa_offset 24
# int_object.c:300:     return new_fbgc_int_object(a1<=b1);   
	.loc 1 300 12 view .LVU174
	cmpl	%eax, %ebx	# tmp94, a1
# int_object.c:301: }
	.loc 1 301 1 view .LVU175
	popq	%rbx	#
	.cfi_def_cfa_offset 16
.LVL75:
	.loc 1 301 1 view .LVU176
	popq	%rbp	#
	.cfi_def_cfa_offset 8
.LVL76:
# int_object.c:300:     return new_fbgc_int_object(a1<=b1);   
	.loc 1 300 12 view .LVU177
	setle	%dil	#, tmp89
	jmp	new_fbgc_int_object	#
.LVL77:
	.loc 1 300 12 view .LVU178
	.cfi_endproc
.LFE51:
	.size	operator_LO_EQ_fbgc_int_object, .-operator_LO_EQ_fbgc_int_object
	.globl	operator_GR_EQ_fbgc_int_object
	.type	operator_GR_EQ_fbgc_int_object, @function
operator_GR_EQ_fbgc_int_object:
.LVL78:
.LFB52:
	.loc 1 304 99 is_stmt 1 view -0
	.cfi_startproc
	.loc 1 304 99 is_stmt 0 view .LVU180
	endbr64	
	.loc 1 305 5 is_stmt 1 view .LVU181
# int_object.c:304: struct fbgc_object * operator_GR_EQ_fbgc_int_object(struct fbgc_object * a,struct fbgc_object * b){
	.loc 1 304 99 is_stmt 0 view .LVU182
	pushq	%rbp	#
	.cfi_def_cfa_offset 16
	.cfi_offset 6, -16
	movq	%rsi, %rbp	# tmp92, b
	pushq	%rbx	#
	.cfi_def_cfa_offset 24
	.cfi_offset 3, -24
	pushq	%rax	#
	.cfi_def_cfa_offset 32
# int_object.c:305:     int a1 = convert_fbgc_object_to_int(a);
	.loc 1 305 14 view .LVU183
	call	convert_fbgc_object_to_int@PLT	#
.LVL79:
# int_object.c:306:     int b1 = convert_fbgc_object_to_int(b);
	.loc 1 306 14 view .LVU184
	movq	%rbp, %rdi	# b,
# int_object.c:305:     int a1 = convert_fbgc_object_to_int(a);
	.loc 1 305 14 view .LVU185
	movl	%eax, %ebx	# tmp93, a1
.LVL80:
	.loc 1 306 5 is_stmt 1 view .LVU186
# int_object.c:306:     int b1 = convert_fbgc_object_to_int(b);
	.loc 1 306 14 is_stmt 0 view .LVU187
	call	convert_fbgc_object_to_int@PLT	#
.LVL81:
	.loc 1 307 5 is_stmt 1 view .LVU188
# int_object.c:307:     return new_fbgc_int_object(a1>=b1); 
	.loc 1 307 12 is_stmt 0 view .LVU189
	xorl	%edi, %edi	# tmp89
# int_object.c:308: }
	.loc 1 308 1 view .LVU190
	popq	%rdx	#
	.cfi_def_cfa_offset 24
# int_object.c:307:     return new_fbgc_int_object(a1>=b1); 
	.loc 1 307 12 view .LVU191
	cmpl	%eax, %ebx	# tmp94, a1
# int_object.c:308: }
	.loc 1 308 1 view .LVU192
	popq	%rbx	#
	.cfi_def_cfa_offset 16
.LVL82:
	.loc 1 308 1 view .LVU193
	popq	%rbp	#
	.cfi_def_cfa_offset 8
.LVL83:
# int_object.c:307:     return new_fbgc_int_object(a1>=b1); 
	.loc 1 307 12 view .LVU194
	setge	%dil	#, tmp89
	jmp	new_fbgc_int_object	#
.LVL84:
	.loc 1 307 12 view .LVU195
	.cfi_endproc
.LFE52:
	.size	operator_GR_EQ_fbgc_int_object, .-operator_GR_EQ_fbgc_int_object
	.globl	operator_EQ_EQ_fbgc_int_object
	.type	operator_EQ_EQ_fbgc_int_object, @function
operator_EQ_EQ_fbgc_int_object:
.LVL85:
.LFB53:
	.loc 1 310 99 is_stmt 1 view -0
	.cfi_startproc
	.loc 1 310 99 is_stmt 0 view .LVU197
	endbr64	
	.loc 1 311 5 is_stmt 1 view .LVU198
# int_object.c:310: struct fbgc_object * operator_EQ_EQ_fbgc_int_object(struct fbgc_object * a,struct fbgc_object * b){
	.loc 1 310 99 is_stmt 0 view .LVU199
	pushq	%rbp	#
	.cfi_def_cfa_offset 16
	.cfi_offset 6, -16
	movq	%rsi, %rbp	# tmp92, b
	pushq	%rbx	#
	.cfi_def_cfa_offset 24
	.cfi_offset 3, -24
	pushq	%rax	#
	.cfi_def_cfa_offset 32
# int_object.c:311:     int a1 = convert_fbgc_object_to_int(a);
	.loc 1 311 14 view .LVU200
	call	convert_fbgc_object_to_int@PLT	#
.LVL86:
# int_object.c:312:     int b1 = convert_fbgc_object_to_int(b);
	.loc 1 312 14 view .LVU201
	movq	%rbp, %rdi	# b,
# int_object.c:311:     int a1 = convert_fbgc_object_to_int(a);
	.loc 1 311 14 view .LVU202
	movl	%eax, %ebx	# tmp93, a1
.LVL87:
	.loc 1 312 5 is_stmt 1 view .LVU203
# int_object.c:312:     int b1 = convert_fbgc_object_to_int(b);
	.loc 1 312 14 is_stmt 0 view .LVU204
	call	convert_fbgc_object_to_int@PLT	#
.LVL88:
	.loc 1 313 5 is_stmt 1 view .LVU205
# int_object.c:313:     return new_fbgc_int_object(a1==b1);   
	.loc 1 313 12 is_stmt 0 view .LVU206
	xorl	%edi, %edi	# tmp89
# int_object.c:314: }
	.loc 1 314 1 view .LVU207
	popq	%rdx	#
	.cfi_def_cfa_offset 24
# int_object.c:313:     return new_fbgc_int_object(a1==b1);   
	.loc 1 313 12 view .LVU208
	cmpl	%eax, %ebx	# tmp94, a1
# int_object.c:314: }
	.loc 1 314 1 view .LVU209
	popq	%rbx	#
	.cfi_def_cfa_offset 16
.LVL89:
	.loc 1 314 1 view .LVU210
	popq	%rbp	#
	.cfi_def_cfa_offset 8
.LVL90:
# int_object.c:313:     return new_fbgc_int_object(a1==b1);   
	.loc 1 313 12 view .LVU211
	sete	%dil	#, tmp89
	jmp	new_fbgc_int_object	#
.LVL91:
	.loc 1 313 12 view .LVU212
	.cfi_endproc
.LFE53:
	.size	operator_EQ_EQ_fbgc_int_object, .-operator_EQ_EQ_fbgc_int_object
	.globl	operator_NOT_EQ_fbgc_int_object
	.type	operator_NOT_EQ_fbgc_int_object, @function
operator_NOT_EQ_fbgc_int_object:
.LVL92:
.LFB54:
	.loc 1 316 100 is_stmt 1 view -0
	.cfi_startproc
	.loc 1 316 100 is_stmt 0 view .LVU214
	endbr64	
	.loc 1 317 5 is_stmt 1 view .LVU215
# int_object.c:316: struct fbgc_object * operator_NOT_EQ_fbgc_int_object(struct fbgc_object * a,struct fbgc_object * b){
	.loc 1 316 100 is_stmt 0 view .LVU216
	pushq	%rbp	#
	.cfi_def_cfa_offset 16
	.cfi_offset 6, -16
	movq	%rsi, %rbp	# tmp92, b
	pushq	%rbx	#
	.cfi_def_cfa_offset 24
	.cfi_offset 3, -24
	pushq	%rax	#
	.cfi_def_cfa_offset 32
# int_object.c:317:     int a1 = convert_fbgc_object_to_int(a);
	.loc 1 317 14 view .LVU217
	call	convert_fbgc_object_to_int@PLT	#
.LVL93:
# int_object.c:318:     int b1 = convert_fbgc_object_to_int(b);
	.loc 1 318 14 view .LVU218
	movq	%rbp, %rdi	# b,
# int_object.c:317:     int a1 = convert_fbgc_object_to_int(a);
	.loc 1 317 14 view .LVU219
	movl	%eax, %ebx	# tmp93, a1
.LVL94:
	.loc 1 318 5 is_stmt 1 view .LVU220
# int_object.c:318:     int b1 = convert_fbgc_object_to_int(b);
	.loc 1 318 14 is_stmt 0 view .LVU221
	call	convert_fbgc_object_to_int@PLT	#
.LVL95:
	.loc 1 319 5 is_stmt 1 view .LVU222
# int_object.c:319:     return new_fbgc_int_object(a1!=b1);
	.loc 1 319 12 is_stmt 0 view .LVU223
	xorl	%edi, %edi	# tmp89
# int_object.c:320: }
	.loc 1 320 1 view .LVU224
	popq	%rdx	#
	.cfi_def_cfa_offset 24
# int_object.c:319:     return new_fbgc_int_object(a1!=b1);
	.loc 1 319 12 view .LVU225
	cmpl	%eax, %ebx	# tmp94, a1
# int_object.c:320: }
	.loc 1 320 1 view .LVU226
	popq	%rbx	#
	.cfi_def_cfa_offset 16
.LVL96:
	.loc 1 320 1 view .LVU227
	popq	%rbp	#
	.cfi_def_cfa_offset 8
.LVL97:
# int_object.c:319:     return new_fbgc_int_object(a1!=b1);
	.loc 1 319 12 view .LVU228
	setne	%dil	#, tmp89
	jmp	new_fbgc_int_object	#
.LVL98:
	.loc 1 319 12 view .LVU229
	.cfi_endproc
.LFE54:
	.size	operator_NOT_EQ_fbgc_int_object, .-operator_NOT_EQ_fbgc_int_object
	.globl	operator_LOWER_fbgc_int_object
	.type	operator_LOWER_fbgc_int_object, @function
operator_LOWER_fbgc_int_object:
.LVL99:
.LFB55:
	.loc 1 322 99 is_stmt 1 view -0
	.cfi_startproc
	.loc 1 322 99 is_stmt 0 view .LVU231
	endbr64	
	.loc 1 323 5 is_stmt 1 view .LVU232
# int_object.c:322: struct fbgc_object * operator_LOWER_fbgc_int_object(struct fbgc_object * a,struct fbgc_object * b){
	.loc 1 322 99 is_stmt 0 view .LVU233
	pushq	%rbp	#
	.cfi_def_cfa_offset 16
	.cfi_offset 6, -16
	movq	%rsi, %rbp	# tmp92, b
	pushq	%rbx	#
	.cfi_def_cfa_offset 24
	.cfi_offset 3, -24
	pushq	%rax	#
	.cfi_def_cfa_offset 32
# int_object.c:323:     int a1 = convert_fbgc_object_to_int(a);
	.loc 1 323 14 view .LVU234
	call	convert_fbgc_object_to_int@PLT	#
.LVL100:
# int_object.c:324:     int b1 = convert_fbgc_object_to_int(b);
	.loc 1 324 14 view .LVU235
	movq	%rbp, %rdi	# b,
# int_object.c:323:     int a1 = convert_fbgc_object_to_int(a);
	.loc 1 323 14 view .LVU236
	movl	%eax, %ebx	# tmp93, a1
.LVL101:
	.loc 1 324 5 is_stmt 1 view .LVU237
# int_object.c:324:     int b1 = convert_fbgc_object_to_int(b);
	.loc 1 324 14 is_stmt 0 view .LVU238
	call	convert_fbgc_object_to_int@PLT	#
.LVL102:
	.loc 1 325 5 is_stmt 1 view .LVU239
# int_object.c:325:     return new_fbgc_int_object(a1<b1);
	.loc 1 325 12 is_stmt 0 view .LVU240
	xorl	%edi, %edi	# tmp89
# int_object.c:326: }
	.loc 1 326 1 view .LVU241
	popq	%rdx	#
	.cfi_def_cfa_offset 24
# int_object.c:325:     return new_fbgc_int_object(a1<b1);
	.loc 1 325 12 view .LVU242
	cmpl	%eax, %ebx	# tmp94, a1
# int_object.c:326: }
	.loc 1 326 1 view .LVU243
	popq	%rbx	#
	.cfi_def_cfa_offset 16
.LVL103:
	.loc 1 326 1 view .LVU244
	popq	%rbp	#
	.cfi_def_cfa_offset 8
.LVL104:
# int_object.c:325:     return new_fbgc_int_object(a1<b1);
	.loc 1 325 12 view .LVU245
	setl	%dil	#, tmp89
	jmp	new_fbgc_int_object	#
.LVL105:
	.loc 1 325 12 view .LVU246
	.cfi_endproc
.LFE55:
	.size	operator_LOWER_fbgc_int_object, .-operator_LOWER_fbgc_int_object
	.globl	operator_GREATER_fbgc_int_object
	.type	operator_GREATER_fbgc_int_object, @function
operator_GREATER_fbgc_int_object:
.LVL106:
.LFB56:
	.loc 1 328 101 is_stmt 1 view -0
	.cfi_startproc
	.loc 1 328 101 is_stmt 0 view .LVU248
	endbr64	
	.loc 1 329 5 is_stmt 1 view .LVU249
# int_object.c:328: struct fbgc_object * operator_GREATER_fbgc_int_object(struct fbgc_object * a,struct fbgc_object * b){
	.loc 1 328 101 is_stmt 0 view .LVU250
	pushq	%rbp	#
	.cfi_def_cfa_offset 16
	.cfi_offset 6, -16
	movq	%rsi, %rbp	# tmp92, b
	pushq	%rbx	#
	.cfi_def_cfa_offset 24
	.cfi_offset 3, -24
	pushq	%rax	#
	.cfi_def_cfa_offset 32
# int_object.c:329:     int a1 = convert_fbgc_object_to_int(a);
	.loc 1 329 14 view .LVU251
	call	convert_fbgc_object_to_int@PLT	#
.LVL107:
# int_object.c:330:     int b1 = convert_fbgc_object_to_int(b);
	.loc 1 330 14 view .LVU252
	movq	%rbp, %rdi	# b,
# int_object.c:329:     int a1 = convert_fbgc_object_to_int(a);
	.loc 1 329 14 view .LVU253
	movl	%eax, %ebx	# tmp93, a1
.LVL108:
	.loc 1 330 5 is_stmt 1 view .LVU254
# int_object.c:330:     int b1 = convert_fbgc_object_to_int(b);
	.loc 1 330 14 is_stmt 0 view .LVU255
	call	convert_fbgc_object_to_int@PLT	#
.LVL109:
	.loc 1 331 5 is_stmt 1 view .LVU256
# int_object.c:331:     return new_fbgc_int_object(a1>b1);
	.loc 1 331 12 is_stmt 0 view .LVU257
	xorl	%edi, %edi	# tmp89
# int_object.c:332: }
	.loc 1 332 1 view .LVU258
	popq	%rdx	#
	.cfi_def_cfa_offset 24
# int_object.c:331:     return new_fbgc_int_object(a1>b1);
	.loc 1 331 12 view .LVU259
	cmpl	%eax, %ebx	# tmp94, a1
# int_object.c:332: }
	.loc 1 332 1 view .LVU260
	popq	%rbx	#
	.cfi_def_cfa_offset 16
.LVL110:
	.loc 1 332 1 view .LVU261
	popq	%rbp	#
	.cfi_def_cfa_offset 8
.LVL111:
# int_object.c:331:     return new_fbgc_int_object(a1>b1);
	.loc 1 331 12 view .LVU262
	setg	%dil	#, tmp89
	jmp	new_fbgc_int_object	#
.LVL112:
	.loc 1 331 12 view .LVU263
	.cfi_endproc
.LFE56:
	.size	operator_GREATER_fbgc_int_object, .-operator_GREATER_fbgc_int_object
	.globl	operator_PIPE_fbgc_int_object
	.type	operator_PIPE_fbgc_int_object, @function
operator_PIPE_fbgc_int_object:
.LVL113:
.LFB57:
	.loc 1 334 98 is_stmt 1 view -0
	.cfi_startproc
	.loc 1 334 98 is_stmt 0 view .LVU265
	endbr64	
	.loc 1 335 5 is_stmt 1 view .LVU266
# int_object.c:334: struct fbgc_object * operator_PIPE_fbgc_int_object(struct fbgc_object * a,struct fbgc_object * b){
	.loc 1 334 98 is_stmt 0 view .LVU267
	pushq	%rbp	#
	.cfi_def_cfa_offset 16
	.cfi_offset 6, -16
	movq	%rsi, %rbp	# tmp94, b
	pushq	%rbx	#
	.cfi_def_cfa_offset 24
	.cfi_offset 3, -24
	pushq	%rax	#
	.cfi_def_cfa_offset 32
# int_object.c:335:     int a1 = convert_fbgc_object_to_int(a);
	.loc 1 335 14 view .LVU268
	call	convert_fbgc_object_to_int@PLT	#
.LVL114:
# int_object.c:336:     int b1 = convert_fbgc_object_to_int(b);
	.loc 1 336 14 view .LVU269
	movq	%rbp, %rdi	# b,
# int_object.c:335:     int a1 = convert_fbgc_object_to_int(a);
	.loc 1 335 14 view .LVU270
	movl	%eax, %ebx	# tmp95, a1
.LVL115:
	.loc 1 336 5 is_stmt 1 view .LVU271
# int_object.c:336:     int b1 = convert_fbgc_object_to_int(b);
	.loc 1 336 14 is_stmt 0 view .LVU272
	call	convert_fbgc_object_to_int@PLT	#
.LVL116:
	.loc 1 337 5 is_stmt 1 view .LVU273
# int_object.c:337:     return new_fbgc_int_object(a1||b1);
	.loc 1 337 12 is_stmt 0 view .LVU274
	xorl	%edi, %edi	# tmp91
# int_object.c:338: }
	.loc 1 338 1 view .LVU275
	popq	%rdx	#
	.cfi_def_cfa_offset 24
# int_object.c:337:     return new_fbgc_int_object(a1||b1);
	.loc 1 337 12 view .LVU276
	orl	%eax, %ebx	# tmp96, a1
.LVL117:
# int_object.c:338: }
	.loc 1 338 1 view .LVU277
	popq	%rbx	#
	.cfi_def_cfa_offset 16
	popq	%rbp	#
	.cfi_def_cfa_offset 8
.LVL118:
# int_object.c:337:     return new_fbgc_int_object(a1||b1);
	.loc 1 337 12 view .LVU278
	setne	%dil	#, tmp91
	jmp	new_fbgc_int_object	#
.LVL119:
	.loc 1 337 12 view .LVU279
	.cfi_endproc
.LFE57:
	.size	operator_PIPE_fbgc_int_object, .-operator_PIPE_fbgc_int_object
	.globl	operator_AMPERSAND_fbgc_int_object
	.type	operator_AMPERSAND_fbgc_int_object, @function
operator_AMPERSAND_fbgc_int_object:
.LVL120:
.LFB58:
	.loc 1 340 103 is_stmt 1 view -0
	.cfi_startproc
	.loc 1 340 103 is_stmt 0 view .LVU281
	endbr64	
	.loc 1 341 5 is_stmt 1 view .LVU282
# int_object.c:340: struct fbgc_object * operator_AMPERSAND_fbgc_int_object(struct fbgc_object * a,struct fbgc_object * b){
	.loc 1 340 103 is_stmt 0 view .LVU283
	pushq	%rbp	#
	.cfi_def_cfa_offset 16
	.cfi_offset 6, -16
	movq	%rsi, %rbp	# tmp98, b
	pushq	%rbx	#
	.cfi_def_cfa_offset 24
	.cfi_offset 3, -24
	pushq	%rax	#
	.cfi_def_cfa_offset 32
# int_object.c:341:     int a1 = convert_fbgc_object_to_int(a);
	.loc 1 341 14 view .LVU284
	call	convert_fbgc_object_to_int@PLT	#
.LVL121:
# int_object.c:342:     int b1 = convert_fbgc_object_to_int(b);
	.loc 1 342 14 view .LVU285
	movq	%rbp, %rdi	# b,
# int_object.c:341:     int a1 = convert_fbgc_object_to_int(a);
	.loc 1 341 14 view .LVU286
	movl	%eax, %ebx	# tmp99, a1
.LVL122:
	.loc 1 342 5 is_stmt 1 view .LVU287
# int_object.c:342:     int b1 = convert_fbgc_object_to_int(b);
	.loc 1 342 14 is_stmt 0 view .LVU288
	call	convert_fbgc_object_to_int@PLT	#
.LVL123:
	.loc 1 343 5 is_stmt 1 view .LVU289
# int_object.c:343:     return new_fbgc_int_object(a1&&b1);
	.loc 1 343 32 is_stmt 0 view .LVU290
	testl	%ebx, %ebx	# a1
	setne	%dl	#, tmp92
# int_object.c:343:     return new_fbgc_int_object(a1&&b1);
	.loc 1 343 12 view .LVU291
	xorl	%edi, %edi	# tmp95
	testl	%eax, %eax	# tmp100
	setne	%dil	#, tmp95
	andl	%edx, %edi	# tmp92, tmp96
# int_object.c:344: }
	.loc 1 344 1 view .LVU292
	popq	%rdx	#
	.cfi_def_cfa_offset 24
	popq	%rbx	#
	.cfi_def_cfa_offset 16
.LVL124:
	.loc 1 344 1 view .LVU293
	popq	%rbp	#
	.cfi_def_cfa_offset 8
.LVL125:
# int_object.c:343:     return new_fbgc_int_object(a1&&b1);
	.loc 1 343 12 view .LVU294
	jmp	new_fbgc_int_object	#
.LVL126:
	.loc 1 343 12 view .LVU295
	.cfi_endproc
.LFE58:
	.size	operator_AMPERSAND_fbgc_int_object, .-operator_AMPERSAND_fbgc_int_object
	.globl	operator_EXCLAMATION_fbgc_int_object
	.type	operator_EXCLAMATION_fbgc_int_object, @function
operator_EXCLAMATION_fbgc_int_object:
.LVL127:
.LFB59:
	.loc 1 347 105 is_stmt 1 view -0
	.cfi_startproc
	.loc 1 347 105 is_stmt 0 view .LVU297
	endbr64	
	.loc 1 348 5 is_stmt 1 view .LVU298
# int_object.c:347: struct fbgc_object * operator_EXCLAMATION_fbgc_int_object(struct fbgc_object * a,struct fbgc_object * b){
	.loc 1 347 105 is_stmt 0 view .LVU299
	pushq	%rax	#
	.cfi_def_cfa_offset 16
# int_object.c:348:     int a1 = convert_fbgc_object_to_int(a);
	.loc 1 348 14 view .LVU300
	call	convert_fbgc_object_to_int@PLT	#
.LVL128:
	.loc 1 349 5 is_stmt 1 view .LVU301
# int_object.c:349:     return new_fbgc_int_object(!a1);
	.loc 1 349 12 is_stmt 0 view .LVU302
	xorl	%edi, %edi	# tmp88
# int_object.c:350: }
	.loc 1 350 1 view .LVU303
	popq	%rdx	#
	.cfi_def_cfa_offset 8
# int_object.c:349:     return new_fbgc_int_object(!a1);
	.loc 1 349 12 view .LVU304
	testl	%eax, %eax	# tmp91
	sete	%dil	#, tmp88
	jmp	new_fbgc_int_object	#
.LVL129:
	.loc 1 349 12 view .LVU305
	.cfi_endproc
.LFE59:
	.size	operator_EXCLAMATION_fbgc_int_object, .-operator_EXCLAMATION_fbgc_int_object
	.globl	operator_TILDE_fbgc_int_object
	.type	operator_TILDE_fbgc_int_object, @function
operator_TILDE_fbgc_int_object:
.LVL130:
.LFB60:
	.loc 1 353 99 is_stmt 1 view -0
	.cfi_startproc
	.loc 1 353 99 is_stmt 0 view .LVU307
	endbr64	
	.loc 1 354 5 is_stmt 1 view .LVU308
# int_object.c:353: struct fbgc_object * operator_TILDE_fbgc_int_object(struct fbgc_object * a,struct fbgc_object * b){
	.loc 1 353 99 is_stmt 0 view .LVU309
	pushq	%rax	#
	.cfi_def_cfa_offset 16
# int_object.c:354:     int a1 = convert_fbgc_object_to_int(a);
	.loc 1 354 14 view .LVU310
	call	convert_fbgc_object_to_int@PLT	#
.LVL131:
	.loc 1 355 5 is_stmt 1 view .LVU311
# int_object.c:356: }
	.loc 1 356 1 is_stmt 0 view .LVU312
	popq	%rdx	#
	.cfi_def_cfa_offset 8
# int_object.c:355:     return new_fbgc_int_object(~a1);
	.loc 1 355 12 view .LVU313
	notl	%eax	# tmp89
.LVL132:
	.loc 1 355 12 view .LVU314
	movl	%eax, %edi	# tmp89, tmp87
	jmp	new_fbgc_int_object	#
.LVL133:
	.loc 1 355 12 view .LVU315
	.cfi_endproc
.LFE60:
	.size	operator_TILDE_fbgc_int_object, .-operator_TILDE_fbgc_int_object
	.globl	operator_UPLUS_fbgc_int_object
	.type	operator_UPLUS_fbgc_int_object, @function
operator_UPLUS_fbgc_int_object:
.LVL134:
.LFB61:
	.loc 1 360 99 is_stmt 1 view -0
	.cfi_startproc
	.loc 1 360 99 is_stmt 0 view .LVU317
	endbr64	
	.loc 1 361 5 is_stmt 1 view .LVU318
# int_object.c:360: struct fbgc_object * operator_UPLUS_fbgc_int_object(struct fbgc_object * a,struct fbgc_object * b){
	.loc 1 360 99 is_stmt 0 view .LVU319
	pushq	%rax	#
	.cfi_def_cfa_offset 16
# int_object.c:361:     int a1 = convert_fbgc_object_to_int(a);
	.loc 1 361 14 view .LVU320
	call	convert_fbgc_object_to_int@PLT	#
.LVL135:
# int_object.c:363: }
	.loc 1 363 1 view .LVU321
	popq	%rdx	#
	.cfi_def_cfa_offset 8
# int_object.c:361:     int a1 = convert_fbgc_object_to_int(a);
	.loc 1 361 14 view .LVU322
	movl	%eax, %edi	# tmp87, a1
.LVL136:
	.loc 1 362 5 is_stmt 1 view .LVU323
# int_object.c:362:     return new_fbgc_int_object(a1);
	.loc 1 362 12 is_stmt 0 view .LVU324
	jmp	new_fbgc_int_object	#
.LVL137:
	.loc 1 362 12 view .LVU325
	.cfi_endproc
.LFE61:
	.size	operator_UPLUS_fbgc_int_object, .-operator_UPLUS_fbgc_int_object
	.globl	operator_UMINUS_fbgc_int_object
	.type	operator_UMINUS_fbgc_int_object, @function
operator_UMINUS_fbgc_int_object:
.LVL138:
.LFB62:
	.loc 1 367 100 is_stmt 1 view -0
	.cfi_startproc
	.loc 1 367 100 is_stmt 0 view .LVU327
	endbr64	
	.loc 1 368 5 is_stmt 1 view .LVU328
# int_object.c:367: struct fbgc_object * operator_UMINUS_fbgc_int_object(struct fbgc_object * a,struct fbgc_object * b){
	.loc 1 367 100 is_stmt 0 view .LVU329
	pushq	%rax	#
	.cfi_def_cfa_offset 16
# int_object.c:368:     int a1 = convert_fbgc_object_to_int(a);
	.loc 1 368 14 view .LVU330
	call	convert_fbgc_object_to_int@PLT	#
.LVL139:
	.loc 1 369 5 is_stmt 1 view .LVU331
# int_object.c:370: }
	.loc 1 370 1 is_stmt 0 view .LVU332
	popq	%rdx	#
	.cfi_def_cfa_offset 8
# int_object.c:369:     return new_fbgc_int_object(-a1);   
	.loc 1 369 12 view .LVU333
	negl	%eax	# tmp89
.LVL140:
	.loc 1 369 12 view .LVU334
	movl	%eax, %edi	# tmp89, tmp87
	jmp	new_fbgc_int_object	#
.LVL141:
	.loc 1 369 12 view .LVU335
	.cfi_endproc
.LFE62:
	.size	operator_UMINUS_fbgc_int_object, .-operator_UMINUS_fbgc_int_object
	.globl	derive_from_new_int_object
	.type	derive_from_new_int_object, @function
derive_from_new_int_object:
.LVL142:
.LFB36:
	.loc 1 14 75 is_stmt 1 view -0
	.cfi_startproc
	.loc 1 14 75 is_stmt 0 view .LVU337
	endbr64	
	.loc 1 15 5 is_stmt 1 view .LVU338
# int_object.c:14: fbgc_object * derive_from_new_int_object(fbgc_token type, int int_content){
	.loc 1 14 75 is_stmt 0 view .LVU339
	pushq	%rbp	#
	.cfi_def_cfa_offset 16
	.cfi_offset 6, -16
	movl	%edi, %ebp	# tmp87, type
# int_object.c:15:     struct fbgc_int_object *into =  (struct fbgc_int_object*) fbgc_malloc(sizeof_fbgc_int_object());
	.loc 1 15 63 view .LVU340
	movl	$13, %edi	#,
.LVL143:
# int_object.c:14: fbgc_object * derive_from_new_int_object(fbgc_token type, int int_content){
	.loc 1 14 75 view .LVU341
	pushq	%rbx	#
	.cfi_def_cfa_offset 24
	.cfi_offset 3, -24
	movl	%esi, %ebx	# tmp88, int_content
	pushq	%rax	#
	.cfi_def_cfa_offset 32
# int_object.c:15:     struct fbgc_int_object *into =  (struct fbgc_int_object*) fbgc_malloc(sizeof_fbgc_int_object());
	.loc 1 15 63 view .LVU342
	call	fbgc_malloc@PLT	#
.LVL144:
	.loc 1 16 5 is_stmt 1 view .LVU343
# int_object.c:16:     into->base.type = type;
	.loc 1 16 21 is_stmt 0 view .LVU344
	movb	%bpl, (%rax)	# type, into_3->base.type
	.loc 1 17 5 is_stmt 1 view .LVU345
# int_object.c:17:     into->content = int_content; 
	.loc 1 17 19 is_stmt 0 view .LVU346
	movl	%ebx, 9(%rax)	# int_content, into_3->content
	.loc 1 18 5 is_stmt 1 view .LVU347
# int_object.c:19: }
	.loc 1 19 1 is_stmt 0 view .LVU348
	popq	%rdx	#
	.cfi_def_cfa_offset 24
	popq	%rbx	#
	.cfi_def_cfa_offset 16
.LVL145:
	.loc 1 19 1 view .LVU349
	popq	%rbp	#
	.cfi_def_cfa_offset 8
	ret	
	.cfi_endproc
.LFE36:
	.size	derive_from_new_int_object, .-derive_from_new_int_object
	.globl	new_fbgc_int_object_from_str
	.type	new_fbgc_int_object_from_str, @function
new_fbgc_int_object_from_str:
.LVL146:
.LFB37:
	.loc 1 23 65 is_stmt 1 view -0
	.cfi_startproc
	.loc 1 23 65 is_stmt 0 view .LVU351
	endbr64	
	.loc 1 25 4 is_stmt 1 view .LVU352
# int_object.c:23: fbgc_object * new_fbgc_int_object_from_str(const char * int_str){
	.loc 1 23 65 is_stmt 0 view .LVU353
	pushq	%rax	#
	.cfi_def_cfa_offset 16
# int_object.c:25:   	return new_fbgc_int_object(strtol(int_str,NULL,10));
	.loc 1 25 31 view .LVU354
	movl	$10, %edx	#,
	xorl	%esi, %esi	#
	call	strtol@PLT	#
.LVL147:
# int_object.c:26: }
	.loc 1 26 1 view .LVU355
	popq	%rdx	#
	.cfi_def_cfa_offset 8
# int_object.c:25:   	return new_fbgc_int_object(strtol(int_str,NULL,10));
	.loc 1 25 31 view .LVU356
	movq	%rax, %rdi	# tmp87, _1
# int_object.c:25:   	return new_fbgc_int_object(strtol(int_str,NULL,10));
	.loc 1 25 11 view .LVU357
	jmp	new_fbgc_int_object	#
.LVL148:
	.cfi_endproc
.LFE37:
	.size	new_fbgc_int_object_from_str, .-new_fbgc_int_object_from_str
	.globl	new_fbgc_int_object_from_substr
	.type	new_fbgc_int_object_from_substr, @function
new_fbgc_int_object_from_substr:
.LVL149:
.LFB38:
	.loc 1 29 119 is_stmt 1 view -0
	.cfi_startproc
	.loc 1 29 119 is_stmt 0 view .LVU359
	endbr64	
	.loc 1 31 5 is_stmt 1 view .LVU360
# int_object.c:29: struct fbgc_object * new_fbgc_int_object_from_substr(const char * int_str_begin,const char * int_str_end,uint8_t base){
	.loc 1 29 119 is_stmt 0 view .LVU361
	pushq	%rax	#
	.cfi_def_cfa_offset 16
# int_object.c:31:     return new_fbgc_int_object(strtol(int_str_begin, NULL,base));
	.loc 1 31 32 view .LVU362
	movzbl	%dl, %edx	# tmp92, base
	.loc 1 31 32 view .LVU363
	xorl	%esi, %esi	#
.LVL150:
	.loc 1 31 32 view .LVU364
	call	strtol@PLT	#
.LVL151:
# int_object.c:32: }
	.loc 1 32 1 view .LVU365
	popq	%rdx	#
	.cfi_def_cfa_offset 8
# int_object.c:31:     return new_fbgc_int_object(strtol(int_str_begin, NULL,base));
	.loc 1 31 32 view .LVU366
	movq	%rax, %rdi	# tmp93, _2
# int_object.c:31:     return new_fbgc_int_object(strtol(int_str_begin, NULL,base));
	.loc 1 31 12 view .LVU367
	jmp	new_fbgc_int_object	#
.LVL152:
	.cfi_endproc
.LFE38:
	.size	new_fbgc_int_object_from_substr, .-new_fbgc_int_object_from_substr
	.globl	operator_fbgc_int_object2
	.type	operator_fbgc_int_object2, @function
operator_fbgc_int_object2:
.LVL153:
.LFB39:
	.loc 1 34 108 is_stmt 1 view -0
	.cfi_startproc
	.loc 1 34 108 is_stmt 0 view .LVU369
	endbr64	
	.loc 1 36 5 is_stmt 1 view .LVU370
# int_object.c:34: struct fbgc_object * operator_fbgc_int_object2(struct fbgc_object * a,struct fbgc_object * b,fbgc_token op){
	.loc 1 34 108 is_stmt 0 view .LVU371
	pushq	%r12	#
	.cfi_def_cfa_offset 16
	.cfi_offset 12, -16
	movq	%rdi, %r12	# tmp151, a
	movq	%rsi, %rdi	# tmp152, b
.LVL154:
	.loc 1 34 108 view .LVU372
	pushq	%rbx	#
	.cfi_def_cfa_offset 24
	.cfi_offset 3, -24
	movl	%edx, %ebx	# tmp153, op
	pushq	%r8	#
	.cfi_def_cfa_offset 32
# int_object.c:36:     int b1 = convert_fbgc_object_to_int(b);
	.loc 1 36 14 view .LVU373
	call	convert_fbgc_object_to_int@PLT	#
.LVL155:
	.loc 1 38 5 is_stmt 1 view .LVU374
	.loc 1 40 1 view .LVU375
	leal	-45(%rbx), %edx	#, tmp121
	cmpb	$9, %dl	#, tmp121
	ja	.L53	#,
	leaq	.L55(%rip), %rsi	#, tmp123
	movzbl	%dl, %edx	# tmp121, tmp122
	movl	%eax, %ecx	# tmp154, b1
	movslq	(%rsi,%rdx,4), %rax	#, tmp125
.LVL156:
	.loc 1 40 1 is_stmt 0 view .LVU376
	addq	%rsi, %rax	# tmp123, tmp126
	notrack jmp	*%rax	# tmp126
	.section	.rodata
	.align 4
	.align 4
.L55:
	.long	.L64-.L55
	.long	.L63-.L55
	.long	.L56-.L55
	.long	.L61-.L55
	.long	.L60-.L55
	.long	.L59-.L55
	.long	.L58-.L55
	.long	.L57-.L55
	.long	.L56-.L55
	.long	.L54-.L55
	.text
.L64:
	.loc 1 44 9 is_stmt 1 view .LVU377
# int_object.c:44:         *c >>= b1;
	.loc 1 44 12 is_stmt 0 view .LVU378
	sarl	%cl, 9(%r12)	# b1, MEM[(int *)a_40(D) + 9B]
	.loc 1 45 9 is_stmt 1 view .LVU379
	jmp	.L53	#
.L63:
	.loc 1 49 9 view .LVU380
# int_object.c:49:         *c <<= b1;
	.loc 1 49 12 is_stmt 0 view .LVU381
	sall	%cl, 9(%r12)	# b1, MEM[(int *)a_40(D) + 9B]
	.loc 1 50 9 is_stmt 1 view .LVU382
	jmp	.L53	#
.L61:
	.loc 1 60 9 view .LVU383
# int_object.c:60:         return new_fbgc_double_object(*c*b1/(*c+b1+0.0)); 
	.loc 1 60 39 is_stmt 0 view .LVU384
	movl	9(%r12), %eax	# MEM[(int *)a_40(D) + 9B], _10
# int_object.c:60:         return new_fbgc_double_object(*c*b1/(*c+b1+0.0)); 
	.loc 1 60 51 view .LVU385
	xorps	%xmm2, %xmm2	# tmp136
# int_object.c:60:         return new_fbgc_double_object(*c*b1/(*c+b1+0.0)); 
	.loc 1 60 41 view .LVU386
	movl	%eax, %edx	# _10, tmp131
	imull	%ecx, %edx	# b1, tmp131
# int_object.c:60:         return new_fbgc_double_object(*c*b1/(*c+b1+0.0)); 
	.loc 1 60 48 view .LVU387
	addl	%eax, %ecx	# _10, tmp133
.LVL157:
# int_object.c:60:         return new_fbgc_double_object(*c*b1/(*c+b1+0.0)); 
	.loc 1 60 51 view .LVU388
	cvtsi2sdl	%ecx, %xmm1	# tmp133, tmp134
# int_object.c:60:         return new_fbgc_double_object(*c*b1/(*c+b1+0.0)); 
	.loc 1 60 16 view .LVU389
	cvtsi2sdl	%edx, %xmm0	# tmp131, tmp132
# int_object.c:60:         return new_fbgc_double_object(*c*b1/(*c+b1+0.0)); 
	.loc 1 60 51 view .LVU390
	addsd	%xmm2, %xmm1	# tmp136, tmp135
	jmp	.L66	#
.LVL158:
.L60:
	.loc 1 64 9 is_stmt 1 view .LVU391
# int_object.c:64:         *c += b1;
	.loc 1 64 12 is_stmt 0 view .LVU392
	addl	%ecx, 9(%r12)	# b1, MEM[(int *)a_40(D) + 9B]
	.loc 1 65 9 is_stmt 1 view .LVU393
	jmp	.L53	#
.L59:
	.loc 1 69 9 view .LVU394
# int_object.c:69:         *c -= b1;
	.loc 1 69 12 is_stmt 0 view .LVU395
	subl	%ecx, 9(%r12)	# b1, MEM[(int *)a_40(D) + 9B]
	.loc 1 70 9 is_stmt 1 view .LVU396
	jmp	.L53	#
.L58:
	.loc 1 74 9 view .LVU397
# int_object.c:74:         *c *= b1;
	.loc 1 74 12 is_stmt 0 view .LVU398
	imull	9(%r12), %ecx	# MEM[(int *)a_40(D) + 9B], tmp138
.LVL159:
	.loc 1 74 12 view .LVU399
	movl	%ecx, 9(%r12)	# tmp138, MEM[(int *)a_40(D) + 9B]
	.loc 1 75 9 is_stmt 1 view .LVU400
	jmp	.L53	#
.LVL160:
.L57:
	.loc 1 79 9 view .LVU401
# int_object.c:79:         return new_fbgc_double_object(((double)*c)/b1);
	.loc 1 79 40 is_stmt 0 view .LVU402
	cvtsi2sdl	9(%r12), %xmm0	# MEM[(int *)a_40(D) + 9B], tmp140
# int_object.c:79:         return new_fbgc_double_object(((double)*c)/b1);
	.loc 1 79 16 view .LVU403
	cvtsi2sdl	%ecx, %xmm1	# b1, tmp141
.LVL161:
.L66:
	.loc 1 79 16 view .LVU404
	divsd	%xmm1, %xmm0	# tmp141, tmp142
# int_object.c:95: }
	.loc 1 95 1 view .LVU405
	popq	%rcx	#
	.cfi_remember_state
	.cfi_def_cfa_offset 24
	popq	%rbx	#
	.cfi_def_cfa_offset 16
	popq	%r12	#
	.cfi_def_cfa_offset 8
.LVL162:
# int_object.c:79:         return new_fbgc_double_object(((double)*c)/b1);
	.loc 1 79 16 view .LVU406
	jmp	new_fbgc_double_object@PLT	#
.LVL163:
.L56:
	.cfi_restore_state
	.loc 1 83 9 is_stmt 1 view .LVU407
# int_object.c:83:         *c = pow(*c,b1);
	.loc 1 83 14 is_stmt 0 view .LVU408
	cvtsi2sdl	9(%r12), %xmm0	# MEM[(int *)a_40(D) + 9B], tmp144
	cvtsi2sdl	%ecx, %xmm1	# b1,
	call	pow@PLT	#
.LVL164:
# int_object.c:83:         *c = pow(*c,b1);
	.loc 1 83 12 view .LVU409
	cvttsd2sil	%xmm0, %eax	# tmp156, tmp145
	movl	%eax, 9(%r12)	# tmp145, MEM[(int *)a_40(D) + 9B]
	.loc 1 84 9 is_stmt 1 view .LVU410
	jmp	.L53	#
.LVL165:
.L54:
	.loc 1 88 9 view .LVU411
# int_object.c:88:         *c %= b1;
	.loc 1 88 12 is_stmt 0 view .LVU412
	movl	9(%r12), %eax	# MEM[(int *)a_40(D) + 9B], MEM[(int *)a_40(D) + 9B]
	cltd
	idivl	%ecx	# b1
	movl	%edx, 9(%r12)	# tmp148, MEM[(int *)a_40(D) + 9B]
	.loc 1 89 9 is_stmt 1 view .LVU413
.LVL166:
.L53:
# int_object.c:95: }
	.loc 1 95 1 is_stmt 0 view .LVU414
	movq	%r12, %rax	# a,
	popq	%rdx	#
	.cfi_def_cfa_offset 24
	popq	%rbx	#
	.cfi_def_cfa_offset 16
	popq	%r12	#
	.cfi_def_cfa_offset 8
.LVL167:
	.loc 1 95 1 view .LVU415
	ret	
	.cfi_endproc
.LFE39:
	.size	operator_fbgc_int_object2, .-operator_fbgc_int_object2
	.globl	operator_fbgc_int_object
	.type	operator_fbgc_int_object, @function
operator_fbgc_int_object:
.LVL168:
.LFB40:
	.loc 1 97 107 is_stmt 1 view -0
	.cfi_startproc
	.loc 1 97 107 is_stmt 0 view .LVU417
	endbr64	
	.loc 1 99 5 is_stmt 1 view .LVU418
# int_object.c:97: struct fbgc_object * operator_fbgc_int_object(struct fbgc_object * a,struct fbgc_object * b,fbgc_token op){
	.loc 1 97 107 is_stmt 0 view .LVU419
	pushq	%r12	#
	.cfi_def_cfa_offset 16
	.cfi_offset 12, -16
	movq	%rsi, %r12	# tmp185, b
	pushq	%rbp	#
	.cfi_def_cfa_offset 24
	.cfi_offset 6, -24
	movl	%edx, %ebp	# tmp186, op
	pushq	%rbx	#
	.cfi_def_cfa_offset 32
	.cfi_offset 3, -32
	subq	$16, %rsp	#,
	.cfi_def_cfa_offset 48
# int_object.c:99:     int a1 = convert_fbgc_object_to_int(a);
	.loc 1 99 14 view .LVU420
	call	convert_fbgc_object_to_int@PLT	#
.LVL169:
# int_object.c:100:     int b1 = convert_fbgc_object_to_int(b);
	.loc 1 100 14 view .LVU421
	movq	%r12, %rdi	# b,
# int_object.c:99:     int a1 = convert_fbgc_object_to_int(a);
	.loc 1 99 14 view .LVU422
	movl	%eax, %ebx	# tmp187, a1
.LVL170:
	.loc 1 100 5 is_stmt 1 view .LVU423
# int_object.c:100:     int b1 = convert_fbgc_object_to_int(b);
	.loc 1 100 14 is_stmt 0 view .LVU424
	call	convert_fbgc_object_to_int@PLT	#
.LVL171:
# int_object.c:104:     struct fbgc_object * cs = new_fbgc_int_object(0);//(operation_type == 0) ? new_fbgc_int_object(0) : a;
	.loc 1 104 31 view .LVU425
	xorl	%edi, %edi	#
# int_object.c:100:     int b1 = convert_fbgc_object_to_int(b);
	.loc 1 100 14 view .LVU426
	movl	%eax, 12(%rsp)	# b1, %sfp
.LVL172:
	.loc 1 104 5 is_stmt 1 view .LVU427
# int_object.c:104:     struct fbgc_object * cs = new_fbgc_int_object(0);//(operation_type == 0) ? new_fbgc_int_object(0) : a;
	.loc 1 104 31 is_stmt 0 view .LVU428
	call	new_fbgc_int_object	#
.LVL173:
	.loc 1 104 31 view .LVU429
	leal	-45(%rbp), %edx	#, tmp131
	movq	%rax, %r12	# tmp189, <retval>
.LVL174:
	.loc 1 106 5 is_stmt 1 view .LVU430
	.loc 1 111 1 view .LVU431
	cmpb	$21, %dl	#, tmp131
	ja	.L68	#,
	leaq	.L71(%rip), %rsi	#, tmp133
	movzbl	%dl, %edx	# tmp131, tmp132
	movl	12(%rsp), %ecx	# %sfp, b1
	movslq	(%rsi,%rdx,4), %rax	#, tmp135
.LVL175:
	.loc 1 111 1 is_stmt 0 view .LVU432
	addq	%rsi, %rax	# tmp133, tmp136
	notrack jmp	*%rax	# tmp136
	.section	.rodata
	.align 4
	.align 4
.L71:
	.long	.L91-.L71
	.long	.L90-.L71
	.long	.L84-.L71
	.long	.L89-.L71
	.long	.L88-.L71
	.long	.L87-.L71
	.long	.L86-.L71
	.long	.L85-.L71
	.long	.L84-.L71
	.long	.L83-.L71
	.long	.L82-.L71
	.long	.L81-.L71
	.long	.L80-.L71
	.long	.L79-.L71
	.long	.L78-.L71
	.long	.L77-.L71
	.long	.L76-.L71
	.long	.L75-.L71
	.long	.L74-.L71
	.long	.L73-.L71
	.long	.L93-.L71
	.long	.L70-.L71
	.text
.L91:
	.loc 1 115 9 is_stmt 1 view .LVU433
# int_object.c:115:         *c = a1>>b1;
	.loc 1 115 16 is_stmt 0 view .LVU434
	sarl	%cl, %ebx	# b1, tmp138
.LVL176:
	.loc 1 115 16 view .LVU435
	jmp	.L93	#
.LVL177:
.L90:
	.loc 1 120 9 is_stmt 1 view .LVU436
# int_object.c:120:         *c = a1<<b1;
	.loc 1 120 16 is_stmt 0 view .LVU437
	sall	%cl, %ebx	# b1, tmp139
.LVL178:
	.loc 1 120 16 view .LVU438
	jmp	.L93	#
.LVL179:
.L89:
	.loc 1 131 9 is_stmt 1 view .LVU439
# int_object.c:131:         return new_fbgc_double_object(a1*b1/(a1+b1+0.0)); 
	.loc 1 131 41 is_stmt 0 view .LVU440
	movl	%ebx, %eax	# a1, tmp140
# int_object.c:131:         return new_fbgc_double_object(a1*b1/(a1+b1+0.0)); 
	.loc 1 131 48 view .LVU441
	addl	%ecx, %ebx	# b1, tmp142
.LVL180:
# int_object.c:131:         return new_fbgc_double_object(a1*b1/(a1+b1+0.0)); 
	.loc 1 131 51 view .LVU442
	xorps	%xmm2, %xmm2	# tmp145
	cvtsi2sdl	%ebx, %xmm1	# tmp142, tmp143
# int_object.c:131:         return new_fbgc_double_object(a1*b1/(a1+b1+0.0)); 
	.loc 1 131 41 view .LVU443
	imull	%ecx, %eax	# b1, tmp140
.LVL181:
# int_object.c:131:         return new_fbgc_double_object(a1*b1/(a1+b1+0.0)); 
	.loc 1 131 16 view .LVU444
	cvtsi2sdl	%eax, %xmm0	# tmp140, tmp141
# int_object.c:131:         return new_fbgc_double_object(a1*b1/(a1+b1+0.0)); 
	.loc 1 131 51 view .LVU445
	addsd	%xmm2, %xmm1	# tmp145, tmp144
	jmp	.L97	#
.LVL182:
.L88:
	.loc 1 135 9 is_stmt 1 view .LVU446
# int_object.c:135:         *c = a1+b1;
	.loc 1 135 16 is_stmt 0 view .LVU447
	addl	%ecx, %ebx	# b1, tmp147
.LVL183:
	.loc 1 135 16 view .LVU448
	jmp	.L93	#
.LVL184:
.L87:
	.loc 1 140 9 is_stmt 1 view .LVU449
# int_object.c:140:         *c = a1-b1;
	.loc 1 140 16 is_stmt 0 view .LVU450
	subl	%ecx, %ebx	# b1, tmp148
.LVL185:
	.loc 1 140 16 view .LVU451
	jmp	.L93	#
.LVL186:
.L86:
	.loc 1 145 9 is_stmt 1 view .LVU452
# int_object.c:145:         *c = a1*b1;
	.loc 1 145 16 is_stmt 0 view .LVU453
	imull	%ecx, %ebx	# b1, tmp149
.LVL187:
	.loc 1 145 16 view .LVU454
	jmp	.L93	#
.LVL188:
.L85:
	.loc 1 150 9 is_stmt 1 view .LVU455
# int_object.c:150:         return new_fbgc_double_object(((double)a1)/b1);
	.loc 1 150 40 is_stmt 0 view .LVU456
	cvtsi2sdl	%ebx, %xmm0	# a1, tmp150
# int_object.c:150:         return new_fbgc_double_object(((double)a1)/b1);
	.loc 1 150 16 view .LVU457
	cvtsi2sdl	%ecx, %xmm1	# b1, tmp151
.LVL189:
.L97:
	.loc 1 150 16 view .LVU458
	divsd	%xmm1, %xmm0	# tmp151, tmp152
# int_object.c:226: }
	.loc 1 226 1 view .LVU459
	addq	$16, %rsp	#,
	.cfi_remember_state
	.cfi_def_cfa_offset 32
	popq	%rbx	#
	.cfi_def_cfa_offset 24
	popq	%rbp	#
	.cfi_def_cfa_offset 16
	popq	%r12	#
	.cfi_def_cfa_offset 8
.LVL190:
# int_object.c:150:         return new_fbgc_double_object(((double)a1)/b1);
	.loc 1 150 16 view .LVU460
	jmp	new_fbgc_double_object@PLT	#
.LVL191:
.L84:
	.cfi_restore_state
	.loc 1 154 9 is_stmt 1 view .LVU461
# int_object.c:154:         *c = pow(a1,b1);
	.loc 1 154 14 is_stmt 0 view .LVU462
	cvtsi2sdl	%ebx, %xmm0	# a1, tmp154
	cvtsi2sdl	%ecx, %xmm1	# b1,
	call	pow@PLT	#
.LVL192:
# int_object.c:154:         *c = pow(a1,b1);
	.loc 1 154 12 view .LVU463
	cvttsd2sil	%xmm0, %eax	# tmp190, tmp155
	jmp	.L94	#
.L83:
	.loc 1 159 9 is_stmt 1 view .LVU464
# int_object.c:159:         *c = a1%b1;
	.loc 1 159 16 is_stmt 0 view .LVU465
	movl	%ebx, %eax	# a1, a1
	cltd
	idivl	%ecx	# b1
# int_object.c:159:         *c = a1%b1;
	.loc 1 159 12 view .LVU466
	movl	%edx, 9(%r12)	# tmp156, MEM[(int *)cs_57 + 9B]
	.loc 1 160 9 is_stmt 1 view .LVU467
	jmp	.L68	#
.L82:
	.loc 1 164 9 view .LVU468
# int_object.c:164:         *c = (a1<=b1);
	.loc 1 164 17 is_stmt 0 view .LVU469
	cmpl	%ecx, %ebx	# b1, a1
	setle	%al	#, tmp158
	jmp	.L95	#
.L81:
	.loc 1 169 9 is_stmt 1 view .LVU470
# int_object.c:169:         *c = (a1 >= b1);
	.loc 1 169 18 is_stmt 0 view .LVU471
	cmpl	%ecx, %ebx	# b1, a1
	setge	%al	#, tmp160
	jmp	.L95	#
.L80:
	.loc 1 174 9 is_stmt 1 view .LVU472
# int_object.c:174:         *c = (a1 == b1);
	.loc 1 174 18 is_stmt 0 view .LVU473
	cmpl	%ecx, %ebx	# b1, a1
	jmp	.L96	#
.L79:
	.loc 1 179 9 is_stmt 1 view .LVU474
# int_object.c:179:         *c = (a1 != b1);
	.loc 1 179 18 is_stmt 0 view .LVU475
	cmpl	%ecx, %ebx	# b1, a1
	jmp	.L98	#
.L78:
	.loc 1 184 9 is_stmt 1 view .LVU476
# int_object.c:184:         *c = (a1<b1);
	.loc 1 184 17 is_stmt 0 view .LVU477
	cmpl	%ecx, %ebx	# b1, a1
	setl	%al	#, tmp166
	jmp	.L95	#
.L77:
	.loc 1 189 9 is_stmt 1 view .LVU478
# int_object.c:189:         *c = (a1>b1);
	.loc 1 189 17 is_stmt 0 view .LVU479
	cmpl	%ecx, %ebx	# b1, a1
	setg	%al	#, tmp168
	jmp	.L95	#
.L76:
	.loc 1 194 9 is_stmt 1 view .LVU480
# int_object.c:194:         *c = (a1 || b1);
	.loc 1 194 18 is_stmt 0 view .LVU481
	orl	%ecx, %ebx	# b1, a1
.LVL193:
.L98:
	.loc 1 194 18 view .LVU482
	setne	%al	#, tmp171
	jmp	.L95	#
.LVL194:
.L75:
	.loc 1 199 9 is_stmt 1 view .LVU483
# int_object.c:199:         *c = (a1 && b1);
	.loc 1 199 15 is_stmt 0 view .LVU484
	testl	%ebx, %ebx	# a1
	setne	%dl	#, tmp174
# int_object.c:199:         *c = (a1 && b1);
	.loc 1 199 18 view .LVU485
	xorl	%eax, %eax	# tmp177
	testl	%ecx, %ecx	# b1
	setne	%al	#, tmp177
	andl	%edx, %eax	# tmp174, tmp178
	jmp	.L94	#
.L74:
	.loc 1 204 9 is_stmt 1 view .LVU486
# int_object.c:204:         *c = (!a1);
	.loc 1 204 15 is_stmt 0 view .LVU487
	testl	%ebx, %ebx	# a1
.L96:
	.loc 1 204 15 view .LVU488
	sete	%al	#, tmp179
.LVL195:
.L95:
	.loc 1 204 15 view .LVU489
	movzbl	%al, %eax	# tmp179, tmp179
.L94:
# int_object.c:204:         *c = (!a1);
	.loc 1 204 12 view .LVU490
	movl	%eax, 9(%r12)	# tmp179, MEM[(int *)cs_57 + 9B]
	.loc 1 205 9 is_stmt 1 view .LVU491
	jmp	.L68	#
.LVL196:
.L73:
	.loc 1 209 9 view .LVU492
# int_object.c:209:         *c = ~a1;
	.loc 1 209 14 is_stmt 0 view .LVU493
	notl	%ebx	# tmp181
.LVL197:
	.loc 1 209 14 view .LVU494
	jmp	.L93	#
.LVL198:
.L70:
	.loc 1 219 9 is_stmt 1 view .LVU495
# int_object.c:219:         *c = -a1;
	.loc 1 219 14 is_stmt 0 view .LVU496
	negl	%ebx	# tmp182
.LVL199:
.L93:
	.loc 1 219 14 view .LVU497
	movl	%ebx, 9(%r12)	# tmp182, MEM[(int *)cs_57 + 9B]
	.loc 1 220 9 is_stmt 1 view .LVU498
.L68:
# int_object.c:226: }
	.loc 1 226 1 is_stmt 0 view .LVU499
	addq	$16, %rsp	#,
	.cfi_def_cfa_offset 32
	movq	%r12, %rax	# <retval>,
	popq	%rbx	#
	.cfi_def_cfa_offset 24
	popq	%rbp	#
	.cfi_def_cfa_offset 16
	popq	%r12	#
	.cfi_def_cfa_offset 8
.LVL200:
	.loc 1 226 1 view .LVU500
	ret	
	.cfi_endproc
.LFE40:
	.size	operator_fbgc_int_object, .-operator_fbgc_int_object
	.section	.rodata.str1.1,"aMS",@progbits,1
.LC1:
	.string	"%d"
	.text
	.globl	print_fbgc_int_object
	.type	print_fbgc_int_object, @function
print_fbgc_int_object:
.LVL201:
.LFB63:
	.loc 1 401 53 is_stmt 1 view -0
	.cfi_startproc
	.loc 1 401 53 is_stmt 0 view .LVU502
	endbr64	
	.loc 1 402 5 is_stmt 1 view .LVU503
	movl	9(%rdi), %edx	# MEM[(struct fbgc_int_object *)obj_3(D)].content, MEM[(struct fbgc_int_object *)obj_3(D)].content
	leaq	.LC1(%rip), %rsi	#,
	movl	$9, %edi	#,
.LVL202:
	.loc 1 402 5 is_stmt 0 view .LVU504
	xorl	%eax, %eax	#
	jmp	cprintf@PLT	#
.LVL203:
	.cfi_endproc
.LFE63:
	.size	print_fbgc_int_object, .-print_fbgc_int_object
	.globl	free_fbgc_int_object
	.type	free_fbgc_int_object, @function
free_fbgc_int_object:
.LVL204:
.LFB64:
	.loc 1 405 52 is_stmt 1 view -0
	.cfi_startproc
	.loc 1 405 52 is_stmt 0 view .LVU506
	endbr64	
	.loc 1 407 1 is_stmt 1 view .LVU507
	ret	
	.cfi_endproc
.LFE64:
	.size	free_fbgc_int_object, .-free_fbgc_int_object
	.globl	fbgc_INT_operators
	.section	.data.rel.local,"aw"
	.align 32
	.type	fbgc_INT_operators, @object
	.size	fbgc_INT_operators, 176
fbgc_INT_operators:
	.quad	operator_R_SHIFT_fbgc_int_object
	.quad	operator_L_SHIFT_fbgc_int_object
	.quad	operator_STARSTAR_fbgc_int_object
	.quad	operator_SLASHSLASH_fbgc_int_object
	.quad	operator_PLUS_fbgc_int_object
	.quad	operator_MINUS_fbgc_int_object
	.quad	operator_STAR_fbgc_int_object
	.quad	operator_SLASH_fbgc_int_object
	.quad	operator_CARET_fbgc_int_object
	.quad	operator_PERCENT_fbgc_int_object
	.quad	operator_LO_EQ_fbgc_int_object
	.quad	operator_GR_EQ_fbgc_int_object
	.quad	operator_EQ_EQ_fbgc_int_object
	.quad	operator_NOT_EQ_fbgc_int_object
	.quad	operator_LOWER_fbgc_int_object
	.quad	operator_GREATER_fbgc_int_object
	.quad	operator_PIPE_fbgc_int_object
	.quad	operator_AMPERSAND_fbgc_int_object
	.quad	operator_EXCLAMATION_fbgc_int_object
	.quad	operator_TILDE_fbgc_int_object
	.quad	operator_UPLUS_fbgc_int_object
	.quad	operator_UMINUS_fbgc_int_object
	.comm	general_symbols,8,8
	.comm	fbgc_memb,33,32
	.text
.Letext0:
	.file 2 "/usr/lib/gcc/x86_64-linux-gnu/9/include/stddef.h"
	.file 3 "/usr/include/x86_64-linux-gnu/bits/types.h"
	.file 4 "/usr/include/x86_64-linux-gnu/bits/stdint-uintn.h"
	.file 5 "/usr/include/x86_64-linux-gnu/bits/types/struct_FILE.h"
	.file 6 "/usr/include/x86_64-linux-gnu/bits/types/FILE.h"
	.file 7 "/usr/include/stdio.h"
	.file 8 "/usr/include/x86_64-linux-gnu/bits/sys_errlist.h"
	.file 9 "/usr/include/math.h"
	.file 10 "/usr/include/time.h"
	.file 11 "/usr/include/signal.h"
	.file 12 "headers/tokens.h"
	.file 13 "headers/fbgc_object.h"
	.file 14 "headers/memory.h"
	.file 15 "headers/int_object.h"
	.file 16 "headers/operator.h"
	.file 17 "headers/symbol_table.h"
	.file 18 "headers/relexer.h"
	.file 19 "headers/error.h"
	.file 20 "headers/double_object.h"
	.file 21 "/usr/include/stdlib.h"
	.file 22 "/usr/include/x86_64-linux-gnu/bits/mathcalls.h"
	.section	.debug_info,"",@progbits
.Ldebug_info0:
	.long	0x1970
	.value	0x4
	.long	.Ldebug_abbrev0
	.byte	0x8
	.uleb128 0x1
	.long	.LASF145
	.byte	0xc
	.long	.LASF146
	.long	.LASF147
	.quad	.Ltext0
	.quad	.Letext0-.Ltext0
	.long	.Ldebug_line0
	.uleb128 0x2
	.byte	0x8
	.byte	0x4
	.long	.LASF0
	.uleb128 0x3
	.byte	0x4
	.byte	0x5
	.string	"int"
	.uleb128 0x4
	.long	.LASF8
	.byte	0x2
	.byte	0xd1
	.byte	0x17
	.long	0x47
	.uleb128 0x2
	.byte	0x8
	.byte	0x7
	.long	.LASF1
	.uleb128 0x2
	.byte	0x4
	.byte	0x7
	.long	.LASF2
	.uleb128 0x2
	.byte	0x8
	.byte	0x5
	.long	.LASF3
	.uleb128 0x2
	.byte	0x8
	.byte	0x5
	.long	.LASF4
	.uleb128 0x2
	.byte	0x1
	.byte	0x8
	.long	.LASF5
	.uleb128 0x2
	.byte	0x2
	.byte	0x7
	.long	.LASF6
	.uleb128 0x2
	.byte	0x1
	.byte	0x6
	.long	.LASF7
	.uleb128 0x4
	.long	.LASF9
	.byte	0x3
	.byte	0x26
	.byte	0x17
	.long	0x63
	.uleb128 0x2
	.byte	0x2
	.byte	0x5
	.long	.LASF10
	.uleb128 0x4
	.long	.LASF11
	.byte	0x3
	.byte	0x98
	.byte	0x19
	.long	0x55
	.uleb128 0x4
	.long	.LASF12
	.byte	0x3
	.byte	0x99
	.byte	0x1b
	.long	0x55
	.uleb128 0x5
	.byte	0x8
	.uleb128 0x6
	.byte	0x8
	.long	0xab
	.uleb128 0x2
	.byte	0x1
	.byte	0x6
	.long	.LASF13
	.uleb128 0x7
	.long	0xab
	.uleb128 0x2
	.byte	0x8
	.byte	0x7
	.long	.LASF14
	.uleb128 0x4
	.long	.LASF15
	.byte	0x4
	.byte	0x18
	.byte	0x13
	.long	0x78
	.uleb128 0x7
	.long	0xbe
	.uleb128 0x6
	.byte	0x8
	.long	0xb2
	.uleb128 0x7
	.long	0xcf
	.uleb128 0x8
	.long	.LASF72
	.byte	0xd0
	.byte	0x5
	.byte	0x31
	.byte	0x8
	.long	0x261
	.uleb128 0x9
	.long	.LASF16
	.byte	0x5
	.byte	0x33
	.byte	0x7
	.long	0x34
	.byte	0
	.uleb128 0x9
	.long	.LASF17
	.byte	0x5
	.byte	0x36
	.byte	0x9
	.long	0xa5
	.byte	0x4
	.uleb128 0x9
	.long	.LASF18
	.byte	0x5
	.byte	0x37
	.byte	0x9
	.long	0xa5
	.byte	0xc
	.uleb128 0x9
	.long	.LASF19
	.byte	0x5
	.byte	0x38
	.byte	0x9
	.long	0xa5
	.byte	0x14
	.uleb128 0x9
	.long	.LASF20
	.byte	0x5
	.byte	0x39
	.byte	0x9
	.long	0xa5
	.byte	0x1c
	.uleb128 0x9
	.long	.LASF21
	.byte	0x5
	.byte	0x3a
	.byte	0x9
	.long	0xa5
	.byte	0x24
	.uleb128 0x9
	.long	.LASF22
	.byte	0x5
	.byte	0x3b
	.byte	0x9
	.long	0xa5
	.byte	0x2c
	.uleb128 0x9
	.long	.LASF23
	.byte	0x5
	.byte	0x3c
	.byte	0x9
	.long	0xa5
	.byte	0x34
	.uleb128 0x9
	.long	.LASF24
	.byte	0x5
	.byte	0x3d
	.byte	0x9
	.long	0xa5
	.byte	0x3c
	.uleb128 0x9
	.long	.LASF25
	.byte	0x5
	.byte	0x40
	.byte	0x9
	.long	0xa5
	.byte	0x44
	.uleb128 0x9
	.long	.LASF26
	.byte	0x5
	.byte	0x41
	.byte	0x9
	.long	0xa5
	.byte	0x4c
	.uleb128 0x9
	.long	.LASF27
	.byte	0x5
	.byte	0x42
	.byte	0x9
	.long	0xa5
	.byte	0x54
	.uleb128 0x9
	.long	.LASF28
	.byte	0x5
	.byte	0x44
	.byte	0x16
	.long	0x27a
	.byte	0x5c
	.uleb128 0x9
	.long	.LASF29
	.byte	0x5
	.byte	0x46
	.byte	0x14
	.long	0x280
	.byte	0x64
	.uleb128 0x9
	.long	.LASF30
	.byte	0x5
	.byte	0x48
	.byte	0x7
	.long	0x34
	.byte	0x6c
	.uleb128 0x9
	.long	.LASF31
	.byte	0x5
	.byte	0x49
	.byte	0x7
	.long	0x34
	.byte	0x70
	.uleb128 0x9
	.long	.LASF32
	.byte	0x5
	.byte	0x4a
	.byte	0xb
	.long	0x8b
	.byte	0x74
	.uleb128 0x9
	.long	.LASF33
	.byte	0x5
	.byte	0x4d
	.byte	0x12
	.long	0x6a
	.byte	0x7c
	.uleb128 0x9
	.long	.LASF34
	.byte	0x5
	.byte	0x4e
	.byte	0xf
	.long	0x71
	.byte	0x7e
	.uleb128 0x9
	.long	.LASF35
	.byte	0x5
	.byte	0x4f
	.byte	0x8
	.long	0x286
	.byte	0x7f
	.uleb128 0x9
	.long	.LASF36
	.byte	0x5
	.byte	0x51
	.byte	0xf
	.long	0x296
	.byte	0x80
	.uleb128 0x9
	.long	.LASF37
	.byte	0x5
	.byte	0x59
	.byte	0xd
	.long	0x97
	.byte	0x88
	.uleb128 0x9
	.long	.LASF38
	.byte	0x5
	.byte	0x5b
	.byte	0x17
	.long	0x2a1
	.byte	0x90
	.uleb128 0x9
	.long	.LASF39
	.byte	0x5
	.byte	0x5c
	.byte	0x19
	.long	0x2ac
	.byte	0x98
	.uleb128 0x9
	.long	.LASF40
	.byte	0x5
	.byte	0x5d
	.byte	0x14
	.long	0x280
	.byte	0xa0
	.uleb128 0x9
	.long	.LASF41
	.byte	0x5
	.byte	0x5e
	.byte	0x9
	.long	0xa3
	.byte	0xa8
	.uleb128 0x9
	.long	.LASF42
	.byte	0x5
	.byte	0x5f
	.byte	0xa
	.long	0x3b
	.byte	0xb0
	.uleb128 0x9
	.long	.LASF43
	.byte	0x5
	.byte	0x60
	.byte	0x7
	.long	0x34
	.byte	0xb8
	.uleb128 0x9
	.long	.LASF44
	.byte	0x5
	.byte	0x62
	.byte	0x8
	.long	0x2b2
	.byte	0xbc
	.byte	0
	.uleb128 0x4
	.long	.LASF45
	.byte	0x6
	.byte	0x7
	.byte	0x19
	.long	0xda
	.uleb128 0xa
	.long	.LASF148
	.byte	0x5
	.byte	0x2b
	.byte	0xe
	.uleb128 0xb
	.long	.LASF46
	.uleb128 0x6
	.byte	0x8
	.long	0x275
	.uleb128 0x6
	.byte	0x8
	.long	0xda
	.uleb128 0xc
	.long	0xab
	.long	0x296
	.uleb128 0xd
	.long	0x47
	.byte	0
	.byte	0
	.uleb128 0x6
	.byte	0x8
	.long	0x26d
	.uleb128 0xb
	.long	.LASF47
	.uleb128 0x6
	.byte	0x8
	.long	0x29c
	.uleb128 0xb
	.long	.LASF48
	.uleb128 0x6
	.byte	0x8
	.long	0x2a7
	.uleb128 0xc
	.long	0xab
	.long	0x2c2
	.uleb128 0xd
	.long	0x47
	.byte	0x13
	.byte	0
	.uleb128 0xe
	.long	.LASF49
	.byte	0x7
	.byte	0x89
	.byte	0xe
	.long	0x2ce
	.uleb128 0x6
	.byte	0x8
	.long	0x261
	.uleb128 0xe
	.long	.LASF50
	.byte	0x7
	.byte	0x8a
	.byte	0xe
	.long	0x2ce
	.uleb128 0xe
	.long	.LASF51
	.byte	0x7
	.byte	0x8b
	.byte	0xe
	.long	0x2ce
	.uleb128 0xe
	.long	.LASF52
	.byte	0x8
	.byte	0x1a
	.byte	0xc
	.long	0x34
	.uleb128 0xc
	.long	0xd5
	.long	0x303
	.uleb128 0xf
	.byte	0
	.uleb128 0x7
	.long	0x2f8
	.uleb128 0xe
	.long	.LASF53
	.byte	0x8
	.byte	0x1b
	.byte	0x1a
	.long	0x303
	.uleb128 0x2
	.byte	0x4
	.byte	0x4
	.long	.LASF54
	.uleb128 0x10
	.long	.LASF55
	.byte	0x9
	.value	0x305
	.byte	0xc
	.long	0x34
	.uleb128 0xc
	.long	0xa5
	.long	0x338
	.uleb128 0xd
	.long	0x47
	.byte	0x1
	.byte	0
	.uleb128 0xe
	.long	.LASF56
	.byte	0xa
	.byte	0x9f
	.byte	0xe
	.long	0x328
	.uleb128 0xe
	.long	.LASF57
	.byte	0xa
	.byte	0xa0
	.byte	0xc
	.long	0x34
	.uleb128 0xe
	.long	.LASF58
	.byte	0xa
	.byte	0xa1
	.byte	0x11
	.long	0x55
	.uleb128 0xe
	.long	.LASF59
	.byte	0xa
	.byte	0xa6
	.byte	0xe
	.long	0x328
	.uleb128 0xe
	.long	.LASF60
	.byte	0xa
	.byte	0xae
	.byte	0xc
	.long	0x34
	.uleb128 0xe
	.long	.LASF61
	.byte	0xa
	.byte	0xaf
	.byte	0x11
	.long	0x55
	.uleb128 0xc
	.long	0xd5
	.long	0x390
	.uleb128 0xd
	.long	0x47
	.byte	0x40
	.byte	0
	.uleb128 0x7
	.long	0x380
	.uleb128 0x10
	.long	.LASF62
	.byte	0xb
	.value	0x11e
	.byte	0x1a
	.long	0x390
	.uleb128 0x10
	.long	.LASF63
	.byte	0xb
	.value	0x11f
	.byte	0x1a
	.long	0x390
	.uleb128 0x4
	.long	.LASF64
	.byte	0xc
	.byte	0x8
	.byte	0x11
	.long	0xbe
	.uleb128 0x7
	.long	0x3af
	.uleb128 0x11
	.byte	0x9
	.byte	0xc
	.byte	0xa
	.byte	0x9
	.long	0x3e4
	.uleb128 0x9
	.long	.LASF65
	.byte	0xc
	.byte	0xb
	.byte	0xd
	.long	0x3af
	.byte	0
	.uleb128 0x9
	.long	.LASF66
	.byte	0xc
	.byte	0xc
	.byte	0xf
	.long	0xcf
	.byte	0x1
	.byte	0
	.uleb128 0x4
	.long	.LASF67
	.byte	0xc
	.byte	0xd
	.byte	0x2
	.long	0x3c0
	.uleb128 0x7
	.long	0x3e4
	.uleb128 0xc
	.long	0xcf
	.long	0x400
	.uleb128 0xf
	.byte	0
	.uleb128 0x10
	.long	.LASF68
	.byte	0xc
	.value	0x108
	.byte	0x15
	.long	0x3f5
	.uleb128 0x10
	.long	.LASF69
	.byte	0xc
	.value	0x109
	.byte	0x15
	.long	0x3f5
	.uleb128 0xc
	.long	0x3f0
	.long	0x425
	.uleb128 0xf
	.byte	0
	.uleb128 0x7
	.long	0x41a
	.uleb128 0x10
	.long	.LASF70
	.byte	0xc
	.value	0x10a
	.byte	0x1b
	.long	0x425
	.uleb128 0x10
	.long	.LASF71
	.byte	0xc
	.value	0x10b
	.byte	0x1b
	.long	0x425
	.uleb128 0x8
	.long	.LASF73
	.byte	0x9
	.byte	0xd
	.byte	0x8
	.byte	0x8
	.long	0x46c
	.uleb128 0x9
	.long	.LASF74
	.byte	0xd
	.byte	0x9
	.byte	0x10
	.long	0x3af
	.byte	0
	.uleb128 0x9
	.long	.LASF75
	.byte	0xd
	.byte	0xa
	.byte	0x1a
	.long	0x46c
	.byte	0x1
	.byte	0
	.uleb128 0x6
	.byte	0x8
	.long	0x444
	.uleb128 0x8
	.long	.LASF76
	.byte	0x1c
	.byte	0xe
	.byte	0xe
	.byte	0x8
	.long	0x4b4
	.uleb128 0x9
	.long	.LASF77
	.byte	0xe
	.byte	0xf
	.byte	0x9
	.long	0xa3
	.byte	0
	.uleb128 0x9
	.long	.LASF78
	.byte	0xe
	.byte	0x10
	.byte	0x9
	.long	0xa3
	.byte	0x8
	.uleb128 0x9
	.long	.LASF79
	.byte	0xe
	.byte	0x11
	.byte	0x9
	.long	0x4e
	.byte	0x10
	.uleb128 0x9
	.long	.LASF75
	.byte	0xe
	.byte	0x12
	.byte	0x1c
	.long	0x4b4
	.byte	0x14
	.byte	0
	.uleb128 0x6
	.byte	0x8
	.long	0x472
	.uleb128 0x8
	.long	.LASF80
	.byte	0x21
	.byte	0xe
	.byte	0x16
	.byte	0x8
	.long	0x509
	.uleb128 0x9
	.long	.LASF81
	.byte	0xe
	.byte	0x17
	.byte	0x9
	.long	0xa3
	.byte	0
	.uleb128 0x9
	.long	.LASF82
	.byte	0xe
	.byte	0x18
	.byte	0x9
	.long	0x4e
	.byte	0x8
	.uleb128 0x9
	.long	.LASF83
	.byte	0xe
	.byte	0x1a
	.byte	0x1c
	.long	0x4b4
	.byte	0xc
	.uleb128 0x9
	.long	.LASF84
	.byte	0xe
	.byte	0x1b
	.byte	0x9
	.long	0x4e
	.byte	0x14
	.uleb128 0x9
	.long	.LASF85
	.byte	0xe
	.byte	0x1d
	.byte	0x15
	.long	0x444
	.byte	0x18
	.byte	0
	.uleb128 0x12
	.long	.LASF86
	.byte	0xe
	.byte	0x21
	.byte	0x1a
	.long	0x4ba
	.uleb128 0x9
	.byte	0x3
	.quad	fbgc_memb
	.uleb128 0x8
	.long	.LASF87
	.byte	0xd
	.byte	0xf
	.byte	0x8
	.byte	0x8
	.long	0x547
	.uleb128 0x9
	.long	.LASF88
	.byte	0xf
	.byte	0x9
	.byte	0x18
	.long	0x444
	.byte	0
	.uleb128 0x9
	.long	.LASF89
	.byte	0xf
	.byte	0xa
	.byte	0x9
	.long	0x34
	.byte	0x9
	.byte	0
	.uleb128 0xc
	.long	0x557
	.long	0x557
	.uleb128 0xd
	.long	0x47
	.byte	0x15
	.byte	0
	.uleb128 0x6
	.byte	0x8
	.long	0x55d
	.uleb128 0x13
	.long	0x46c
	.long	0x571
	.uleb128 0x14
	.long	0x46c
	.uleb128 0x14
	.long	0x46c
	.byte	0
	.uleb128 0xe
	.long	.LASF90
	.byte	0xf
	.byte	0x39
	.byte	0x1f
	.long	0x547
	.uleb128 0xc
	.long	0x58d
	.long	0x58d
	.uleb128 0xd
	.long	0x47
	.byte	0x6
	.byte	0
	.uleb128 0x6
	.byte	0x8
	.long	0x593
	.uleb128 0x13
	.long	0x46c
	.long	0x5ac
	.uleb128 0x14
	.long	0x46c
	.uleb128 0x14
	.long	0x46c
	.uleb128 0x14
	.long	0x3af
	.byte	0
	.uleb128 0xe
	.long	.LASF91
	.byte	0x10
	.byte	0x8
	.byte	0x1f
	.long	0x57d
	.uleb128 0xc
	.long	0x58d
	.long	0x5c8
	.uleb128 0xd
	.long	0x47
	.byte	0
	.byte	0
	.uleb128 0xe
	.long	.LASF92
	.byte	0x10
	.byte	0xa
	.byte	0x1f
	.long	0x5b8
	.uleb128 0x8
	.long	.LASF93
	.byte	0x8
	.byte	0x11
	.byte	0xb
	.byte	0x8
	.long	0x5ef
	.uleb128 0x15
	.string	"sym"
	.byte	0x11
	.byte	0xc
	.byte	0x17
	.long	0x46c
	.byte	0
	.byte	0
	.uleb128 0x12
	.long	.LASF94
	.byte	0x11
	.byte	0x13
	.byte	0x21
	.long	0x5d4
	.uleb128 0x9
	.byte	0x3
	.quad	general_symbols
	.uleb128 0x11
	.byte	0x1a
	.byte	0x12
	.byte	0x35
	.byte	0x9
	.long	0x650
	.uleb128 0x9
	.long	.LASF95
	.byte	0x12
	.byte	0x36
	.byte	0x10
	.long	0xca
	.byte	0
	.uleb128 0x9
	.long	.LASF96
	.byte	0x12
	.byte	0x36
	.byte	0x1b
	.long	0xca
	.byte	0x1
	.uleb128 0x9
	.long	.LASF97
	.byte	0x12
	.byte	0x37
	.byte	0x10
	.long	0x650
	.byte	0x2
	.uleb128 0x9
	.long	.LASF98
	.byte	0x12
	.byte	0x38
	.byte	0x12
	.long	0x656
	.byte	0xa
	.uleb128 0x9
	.long	.LASF99
	.byte	0x12
	.byte	0x39
	.byte	0x15
	.long	0x65c
	.byte	0x12
	.byte	0
	.uleb128 0x6
	.byte	0x8
	.long	0xcf
	.uleb128 0x6
	.byte	0x8
	.long	0xca
	.uleb128 0x6
	.byte	0x8
	.long	0x3bb
	.uleb128 0x4
	.long	.LASF100
	.byte	0x12
	.byte	0x3a
	.byte	0x2
	.long	0x605
	.uleb128 0x7
	.long	0x662
	.uleb128 0x11
	.byte	0x9
	.byte	0x12
	.byte	0x3c
	.byte	0x9
	.long	0x697
	.uleb128 0x9
	.long	.LASF101
	.byte	0x12
	.byte	0x3d
	.byte	0xd
	.long	0x3af
	.byte	0
	.uleb128 0x9
	.long	.LASF102
	.byte	0x12
	.byte	0x3e
	.byte	0xe
	.long	0xcf
	.byte	0x1
	.byte	0
	.uleb128 0x4
	.long	.LASF103
	.byte	0x12
	.byte	0x3f
	.byte	0x2
	.long	0x673
	.uleb128 0x7
	.long	0x697
	.uleb128 0xc
	.long	0x66e
	.long	0x6b8
	.uleb128 0xd
	.long	0x47
	.byte	0
	.byte	0
	.uleb128 0x7
	.long	0x6a8
	.uleb128 0xe
	.long	.LASF104
	.byte	0x12
	.byte	0x4a
	.byte	0x21
	.long	0x6b8
	.uleb128 0xc
	.long	0x6a3
	.long	0x6d4
	.uleb128 0xf
	.byte	0
	.uleb128 0x7
	.long	0x6c9
	.uleb128 0xe
	.long	.LASF105
	.byte	0x12
	.byte	0x50
	.byte	0x25
	.long	0x6d4
	.uleb128 0x16
	.long	0x571
	.byte	0x1
	.value	0x175
	.byte	0x18
	.uleb128 0x9
	.byte	0x3
	.quad	fbgc_INT_operators
	.uleb128 0x17
	.long	.LASF106
	.byte	0x1
	.value	0x195
	.byte	0x6
	.quad	.LFB64
	.quad	.LFE64-.LFB64
	.uleb128 0x1
	.byte	0x9c
	.long	0x727
	.uleb128 0x18
	.string	"obj"
	.byte	0x1
	.value	0x195
	.byte	0x30
	.long	0x46c
	.uleb128 0x1
	.byte	0x55
	.byte	0
	.uleb128 0x17
	.long	.LASF107
	.byte	0x1
	.value	0x191
	.byte	0x6
	.quad	.LFB63
	.quad	.LFE63-.LFB63
	.uleb128 0x1
	.byte	0x9c
	.long	0x77c
	.uleb128 0x19
	.string	"obj"
	.byte	0x1
	.value	0x191
	.byte	0x31
	.long	0x46c
	.long	.LLST101
	.long	.LVUS101
	.uleb128 0x1a
	.quad	.LVL203
	.long	0x192b
	.uleb128 0x1b
	.uleb128 0x1
	.byte	0x55
	.uleb128 0x1
	.byte	0x39
	.uleb128 0x1b
	.uleb128 0x1
	.byte	0x54
	.uleb128 0x9
	.byte	0x3
	.quad	.LC1
	.byte	0
	.byte	0
	.uleb128 0x1c
	.long	.LASF108
	.byte	0x1
	.value	0x16f
	.byte	0x16
	.long	0x46c
	.quad	.LFB62
	.quad	.LFE62-.LFB62
	.uleb128 0x1
	.byte	0x9c
	.long	0x800
	.uleb128 0x19
	.string	"a"
	.byte	0x1
	.value	0x16f
	.byte	0x4b
	.long	0x46c
	.long	.LLST79
	.long	.LVUS79
	.uleb128 0x19
	.string	"b"
	.byte	0x1
	.value	0x16f
	.byte	0x62
	.long	0x46c
	.long	.LLST80
	.long	.LVUS80
	.uleb128 0x1d
	.string	"a1"
	.byte	0x1
	.value	0x170
	.byte	0x9
	.long	0x34
	.long	.LLST81
	.long	.LVUS81
	.uleb128 0x1e
	.quad	.LVL139
	.long	0x1937
	.long	0x7f2
	.uleb128 0x1b
	.uleb128 0x1
	.byte	0x55
	.uleb128 0x3
	.byte	0xf3
	.uleb128 0x1
	.byte	0x55
	.byte	0
	.uleb128 0x1f
	.quad	.LVL141
	.long	0x18cd
	.byte	0
	.uleb128 0x1c
	.long	.LASF109
	.byte	0x1
	.value	0x168
	.byte	0x16
	.long	0x46c
	.quad	.LFB61
	.quad	.LFE61-.LFB61
	.uleb128 0x1
	.byte	0x9c
	.long	0x884
	.uleb128 0x19
	.string	"a"
	.byte	0x1
	.value	0x168
	.byte	0x4a
	.long	0x46c
	.long	.LLST76
	.long	.LVUS76
	.uleb128 0x19
	.string	"b"
	.byte	0x1
	.value	0x168
	.byte	0x61
	.long	0x46c
	.long	.LLST77
	.long	.LVUS77
	.uleb128 0x1d
	.string	"a1"
	.byte	0x1
	.value	0x169
	.byte	0x9
	.long	0x34
	.long	.LLST78
	.long	.LVUS78
	.uleb128 0x1e
	.quad	.LVL135
	.long	0x1937
	.long	0x876
	.uleb128 0x1b
	.uleb128 0x1
	.byte	0x55
	.uleb128 0x3
	.byte	0xf3
	.uleb128 0x1
	.byte	0x55
	.byte	0
	.uleb128 0x1f
	.quad	.LVL137
	.long	0x18cd
	.byte	0
	.uleb128 0x1c
	.long	.LASF110
	.byte	0x1
	.value	0x161
	.byte	0x16
	.long	0x46c
	.quad	.LFB60
	.quad	.LFE60-.LFB60
	.uleb128 0x1
	.byte	0x9c
	.long	0x908
	.uleb128 0x19
	.string	"a"
	.byte	0x1
	.value	0x161
	.byte	0x4a
	.long	0x46c
	.long	.LLST73
	.long	.LVUS73
	.uleb128 0x19
	.string	"b"
	.byte	0x1
	.value	0x161
	.byte	0x61
	.long	0x46c
	.long	.LLST74
	.long	.LVUS74
	.uleb128 0x1d
	.string	"a1"
	.byte	0x1
	.value	0x162
	.byte	0x9
	.long	0x34
	.long	.LLST75
	.long	.LVUS75
	.uleb128 0x1e
	.quad	.LVL131
	.long	0x1937
	.long	0x8fa
	.uleb128 0x1b
	.uleb128 0x1
	.byte	0x55
	.uleb128 0x3
	.byte	0xf3
	.uleb128 0x1
	.byte	0x55
	.byte	0
	.uleb128 0x1f
	.quad	.LVL133
	.long	0x18cd
	.byte	0
	.uleb128 0x1c
	.long	.LASF111
	.byte	0x1
	.value	0x15b
	.byte	0x16
	.long	0x46c
	.quad	.LFB59
	.quad	.LFE59-.LFB59
	.uleb128 0x1
	.byte	0x9c
	.long	0x98c
	.uleb128 0x19
	.string	"a"
	.byte	0x1
	.value	0x15b
	.byte	0x50
	.long	0x46c
	.long	.LLST70
	.long	.LVUS70
	.uleb128 0x19
	.string	"b"
	.byte	0x1
	.value	0x15b
	.byte	0x67
	.long	0x46c
	.long	.LLST71
	.long	.LVUS71
	.uleb128 0x1d
	.string	"a1"
	.byte	0x1
	.value	0x15c
	.byte	0x9
	.long	0x34
	.long	.LLST72
	.long	.LVUS72
	.uleb128 0x1e
	.quad	.LVL128
	.long	0x1937
	.long	0x97e
	.uleb128 0x1b
	.uleb128 0x1
	.byte	0x55
	.uleb128 0x3
	.byte	0xf3
	.uleb128 0x1
	.byte	0x55
	.byte	0
	.uleb128 0x1f
	.quad	.LVL129
	.long	0x18cd
	.byte	0
	.uleb128 0x1c
	.long	.LASF112
	.byte	0x1
	.value	0x154
	.byte	0x16
	.long	0x46c
	.quad	.LFB58
	.quad	.LFE58-.LFB58
	.uleb128 0x1
	.byte	0x9c
	.long	0xa3c
	.uleb128 0x19
	.string	"a"
	.byte	0x1
	.value	0x154
	.byte	0x4e
	.long	0x46c
	.long	.LLST66
	.long	.LVUS66
	.uleb128 0x19
	.string	"b"
	.byte	0x1
	.value	0x154
	.byte	0x65
	.long	0x46c
	.long	.LLST67
	.long	.LVUS67
	.uleb128 0x1d
	.string	"a1"
	.byte	0x1
	.value	0x155
	.byte	0x9
	.long	0x34
	.long	.LLST68
	.long	.LVUS68
	.uleb128 0x1d
	.string	"b1"
	.byte	0x1
	.value	0x156
	.byte	0x9
	.long	0x34
	.long	.LLST69
	.long	.LVUS69
	.uleb128 0x1e
	.quad	.LVL121
	.long	0x1937
	.long	0xa16
	.uleb128 0x1b
	.uleb128 0x1
	.byte	0x55
	.uleb128 0x3
	.byte	0xf3
	.uleb128 0x1
	.byte	0x55
	.byte	0
	.uleb128 0x1e
	.quad	.LVL123
	.long	0x1937
	.long	0xa2e
	.uleb128 0x1b
	.uleb128 0x1
	.byte	0x55
	.uleb128 0x2
	.byte	0x76
	.sleb128 0
	.byte	0
	.uleb128 0x1f
	.quad	.LVL126
	.long	0x18cd
	.byte	0
	.uleb128 0x1c
	.long	.LASF113
	.byte	0x1
	.value	0x14e
	.byte	0x16
	.long	0x46c
	.quad	.LFB57
	.quad	.LFE57-.LFB57
	.uleb128 0x1
	.byte	0x9c
	.long	0xaec
	.uleb128 0x19
	.string	"a"
	.byte	0x1
	.value	0x14e
	.byte	0x49
	.long	0x46c
	.long	.LLST62
	.long	.LVUS62
	.uleb128 0x19
	.string	"b"
	.byte	0x1
	.value	0x14e
	.byte	0x60
	.long	0x46c
	.long	.LLST63
	.long	.LVUS63
	.uleb128 0x1d
	.string	"a1"
	.byte	0x1
	.value	0x14f
	.byte	0x9
	.long	0x34
	.long	.LLST64
	.long	.LVUS64
	.uleb128 0x1d
	.string	"b1"
	.byte	0x1
	.value	0x150
	.byte	0x9
	.long	0x34
	.long	.LLST65
	.long	.LVUS65
	.uleb128 0x1e
	.quad	.LVL114
	.long	0x1937
	.long	0xac6
	.uleb128 0x1b
	.uleb128 0x1
	.byte	0x55
	.uleb128 0x3
	.byte	0xf3
	.uleb128 0x1
	.byte	0x55
	.byte	0
	.uleb128 0x1e
	.quad	.LVL116
	.long	0x1937
	.long	0xade
	.uleb128 0x1b
	.uleb128 0x1
	.byte	0x55
	.uleb128 0x2
	.byte	0x76
	.sleb128 0
	.byte	0
	.uleb128 0x1f
	.quad	.LVL119
	.long	0x18cd
	.byte	0
	.uleb128 0x1c
	.long	.LASF114
	.byte	0x1
	.value	0x148
	.byte	0x16
	.long	0x46c
	.quad	.LFB56
	.quad	.LFE56-.LFB56
	.uleb128 0x1
	.byte	0x9c
	.long	0xb9c
	.uleb128 0x19
	.string	"a"
	.byte	0x1
	.value	0x148
	.byte	0x4c
	.long	0x46c
	.long	.LLST58
	.long	.LVUS58
	.uleb128 0x19
	.string	"b"
	.byte	0x1
	.value	0x148
	.byte	0x63
	.long	0x46c
	.long	.LLST59
	.long	.LVUS59
	.uleb128 0x1d
	.string	"a1"
	.byte	0x1
	.value	0x149
	.byte	0x9
	.long	0x34
	.long	.LLST60
	.long	.LVUS60
	.uleb128 0x1d
	.string	"b1"
	.byte	0x1
	.value	0x14a
	.byte	0x9
	.long	0x34
	.long	.LLST61
	.long	.LVUS61
	.uleb128 0x1e
	.quad	.LVL107
	.long	0x1937
	.long	0xb76
	.uleb128 0x1b
	.uleb128 0x1
	.byte	0x55
	.uleb128 0x3
	.byte	0xf3
	.uleb128 0x1
	.byte	0x55
	.byte	0
	.uleb128 0x1e
	.quad	.LVL109
	.long	0x1937
	.long	0xb8e
	.uleb128 0x1b
	.uleb128 0x1
	.byte	0x55
	.uleb128 0x2
	.byte	0x76
	.sleb128 0
	.byte	0
	.uleb128 0x1f
	.quad	.LVL112
	.long	0x18cd
	.byte	0
	.uleb128 0x1c
	.long	.LASF115
	.byte	0x1
	.value	0x142
	.byte	0x16
	.long	0x46c
	.quad	.LFB55
	.quad	.LFE55-.LFB55
	.uleb128 0x1
	.byte	0x9c
	.long	0xc4c
	.uleb128 0x19
	.string	"a"
	.byte	0x1
	.value	0x142
	.byte	0x4a
	.long	0x46c
	.long	.LLST54
	.long	.LVUS54
	.uleb128 0x19
	.string	"b"
	.byte	0x1
	.value	0x142
	.byte	0x61
	.long	0x46c
	.long	.LLST55
	.long	.LVUS55
	.uleb128 0x1d
	.string	"a1"
	.byte	0x1
	.value	0x143
	.byte	0x9
	.long	0x34
	.long	.LLST56
	.long	.LVUS56
	.uleb128 0x1d
	.string	"b1"
	.byte	0x1
	.value	0x144
	.byte	0x9
	.long	0x34
	.long	.LLST57
	.long	.LVUS57
	.uleb128 0x1e
	.quad	.LVL100
	.long	0x1937
	.long	0xc26
	.uleb128 0x1b
	.uleb128 0x1
	.byte	0x55
	.uleb128 0x3
	.byte	0xf3
	.uleb128 0x1
	.byte	0x55
	.byte	0
	.uleb128 0x1e
	.quad	.LVL102
	.long	0x1937
	.long	0xc3e
	.uleb128 0x1b
	.uleb128 0x1
	.byte	0x55
	.uleb128 0x2
	.byte	0x76
	.sleb128 0
	.byte	0
	.uleb128 0x1f
	.quad	.LVL105
	.long	0x18cd
	.byte	0
	.uleb128 0x1c
	.long	.LASF116
	.byte	0x1
	.value	0x13c
	.byte	0x16
	.long	0x46c
	.quad	.LFB54
	.quad	.LFE54-.LFB54
	.uleb128 0x1
	.byte	0x9c
	.long	0xcfc
	.uleb128 0x19
	.string	"a"
	.byte	0x1
	.value	0x13c
	.byte	0x4b
	.long	0x46c
	.long	.LLST50
	.long	.LVUS50
	.uleb128 0x19
	.string	"b"
	.byte	0x1
	.value	0x13c
	.byte	0x62
	.long	0x46c
	.long	.LLST51
	.long	.LVUS51
	.uleb128 0x1d
	.string	"a1"
	.byte	0x1
	.value	0x13d
	.byte	0x9
	.long	0x34
	.long	.LLST52
	.long	.LVUS52
	.uleb128 0x1d
	.string	"b1"
	.byte	0x1
	.value	0x13e
	.byte	0x9
	.long	0x34
	.long	.LLST53
	.long	.LVUS53
	.uleb128 0x1e
	.quad	.LVL93
	.long	0x1937
	.long	0xcd6
	.uleb128 0x1b
	.uleb128 0x1
	.byte	0x55
	.uleb128 0x3
	.byte	0xf3
	.uleb128 0x1
	.byte	0x55
	.byte	0
	.uleb128 0x1e
	.quad	.LVL95
	.long	0x1937
	.long	0xcee
	.uleb128 0x1b
	.uleb128 0x1
	.byte	0x55
	.uleb128 0x2
	.byte	0x76
	.sleb128 0
	.byte	0
	.uleb128 0x1f
	.quad	.LVL98
	.long	0x18cd
	.byte	0
	.uleb128 0x1c
	.long	.LASF117
	.byte	0x1
	.value	0x136
	.byte	0x16
	.long	0x46c
	.quad	.LFB53
	.quad	.LFE53-.LFB53
	.uleb128 0x1
	.byte	0x9c
	.long	0xdac
	.uleb128 0x19
	.string	"a"
	.byte	0x1
	.value	0x136
	.byte	0x4a
	.long	0x46c
	.long	.LLST46
	.long	.LVUS46
	.uleb128 0x19
	.string	"b"
	.byte	0x1
	.value	0x136
	.byte	0x61
	.long	0x46c
	.long	.LLST47
	.long	.LVUS47
	.uleb128 0x1d
	.string	"a1"
	.byte	0x1
	.value	0x137
	.byte	0x9
	.long	0x34
	.long	.LLST48
	.long	.LVUS48
	.uleb128 0x1d
	.string	"b1"
	.byte	0x1
	.value	0x138
	.byte	0x9
	.long	0x34
	.long	.LLST49
	.long	.LVUS49
	.uleb128 0x1e
	.quad	.LVL86
	.long	0x1937
	.long	0xd86
	.uleb128 0x1b
	.uleb128 0x1
	.byte	0x55
	.uleb128 0x3
	.byte	0xf3
	.uleb128 0x1
	.byte	0x55
	.byte	0
	.uleb128 0x1e
	.quad	.LVL88
	.long	0x1937
	.long	0xd9e
	.uleb128 0x1b
	.uleb128 0x1
	.byte	0x55
	.uleb128 0x2
	.byte	0x76
	.sleb128 0
	.byte	0
	.uleb128 0x1f
	.quad	.LVL91
	.long	0x18cd
	.byte	0
	.uleb128 0x1c
	.long	.LASF118
	.byte	0x1
	.value	0x130
	.byte	0x16
	.long	0x46c
	.quad	.LFB52
	.quad	.LFE52-.LFB52
	.uleb128 0x1
	.byte	0x9c
	.long	0xe5c
	.uleb128 0x19
	.string	"a"
	.byte	0x1
	.value	0x130
	.byte	0x4a
	.long	0x46c
	.long	.LLST42
	.long	.LVUS42
	.uleb128 0x19
	.string	"b"
	.byte	0x1
	.value	0x130
	.byte	0x61
	.long	0x46c
	.long	.LLST43
	.long	.LVUS43
	.uleb128 0x1d
	.string	"a1"
	.byte	0x1
	.value	0x131
	.byte	0x9
	.long	0x34
	.long	.LLST44
	.long	.LVUS44
	.uleb128 0x1d
	.string	"b1"
	.byte	0x1
	.value	0x132
	.byte	0x9
	.long	0x34
	.long	.LLST45
	.long	.LVUS45
	.uleb128 0x1e
	.quad	.LVL79
	.long	0x1937
	.long	0xe36
	.uleb128 0x1b
	.uleb128 0x1
	.byte	0x55
	.uleb128 0x3
	.byte	0xf3
	.uleb128 0x1
	.byte	0x55
	.byte	0
	.uleb128 0x1e
	.quad	.LVL81
	.long	0x1937
	.long	0xe4e
	.uleb128 0x1b
	.uleb128 0x1
	.byte	0x55
	.uleb128 0x2
	.byte	0x76
	.sleb128 0
	.byte	0
	.uleb128 0x1f
	.quad	.LVL84
	.long	0x18cd
	.byte	0
	.uleb128 0x1c
	.long	.LASF119
	.byte	0x1
	.value	0x129
	.byte	0x16
	.long	0x46c
	.quad	.LFB51
	.quad	.LFE51-.LFB51
	.uleb128 0x1
	.byte	0x9c
	.long	0xf0c
	.uleb128 0x19
	.string	"a"
	.byte	0x1
	.value	0x129
	.byte	0x4a
	.long	0x46c
	.long	.LLST38
	.long	.LVUS38
	.uleb128 0x19
	.string	"b"
	.byte	0x1
	.value	0x129
	.byte	0x61
	.long	0x46c
	.long	.LLST39
	.long	.LVUS39
	.uleb128 0x1d
	.string	"a1"
	.byte	0x1
	.value	0x12a
	.byte	0x9
	.long	0x34
	.long	.LLST40
	.long	.LVUS40
	.uleb128 0x1d
	.string	"b1"
	.byte	0x1
	.value	0x12b
	.byte	0x9
	.long	0x34
	.long	.LLST41
	.long	.LVUS41
	.uleb128 0x1e
	.quad	.LVL72
	.long	0x1937
	.long	0xee6
	.uleb128 0x1b
	.uleb128 0x1
	.byte	0x55
	.uleb128 0x3
	.byte	0xf3
	.uleb128 0x1
	.byte	0x55
	.byte	0
	.uleb128 0x1e
	.quad	.LVL74
	.long	0x1937
	.long	0xefe
	.uleb128 0x1b
	.uleb128 0x1
	.byte	0x55
	.uleb128 0x2
	.byte	0x76
	.sleb128 0
	.byte	0
	.uleb128 0x1f
	.quad	.LVL77
	.long	0x18cd
	.byte	0
	.uleb128 0x1c
	.long	.LASF120
	.byte	0x1
	.value	0x122
	.byte	0x16
	.long	0x46c
	.quad	.LFB50
	.quad	.LFE50-.LFB50
	.uleb128 0x1
	.byte	0x9c
	.long	0xfbc
	.uleb128 0x19
	.string	"a"
	.byte	0x1
	.value	0x122
	.byte	0x4c
	.long	0x46c
	.long	.LLST34
	.long	.LVUS34
	.uleb128 0x19
	.string	"b"
	.byte	0x1
	.value	0x122
	.byte	0x63
	.long	0x46c
	.long	.LLST35
	.long	.LVUS35
	.uleb128 0x1d
	.string	"a1"
	.byte	0x1
	.value	0x123
	.byte	0x9
	.long	0x34
	.long	.LLST36
	.long	.LVUS36
	.uleb128 0x1d
	.string	"b1"
	.byte	0x1
	.value	0x124
	.byte	0x9
	.long	0x34
	.long	.LLST37
	.long	.LVUS37
	.uleb128 0x1e
	.quad	.LVL63
	.long	0x1937
	.long	0xf96
	.uleb128 0x1b
	.uleb128 0x1
	.byte	0x55
	.uleb128 0x3
	.byte	0xf3
	.uleb128 0x1
	.byte	0x55
	.byte	0
	.uleb128 0x1e
	.quad	.LVL65
	.long	0x1937
	.long	0xfae
	.uleb128 0x1b
	.uleb128 0x1
	.byte	0x55
	.uleb128 0x2
	.byte	0x76
	.sleb128 0
	.byte	0
	.uleb128 0x1f
	.quad	.LVL70
	.long	0x18cd
	.byte	0
	.uleb128 0x20
	.long	.LASF149
	.byte	0x1
	.value	0x11b
	.byte	0x16
	.long	0x46c
	.long	0xffc
	.uleb128 0x21
	.string	"a"
	.byte	0x1
	.value	0x11b
	.byte	0x4a
	.long	0x46c
	.uleb128 0x21
	.string	"b"
	.byte	0x1
	.value	0x11b
	.byte	0x61
	.long	0x46c
	.uleb128 0x22
	.string	"a1"
	.byte	0x1
	.value	0x11c
	.byte	0x9
	.long	0x34
	.uleb128 0x22
	.string	"b1"
	.byte	0x1
	.value	0x11d
	.byte	0x9
	.long	0x34
	.byte	0
	.uleb128 0x1c
	.long	.LASF121
	.byte	0x1
	.value	0x114
	.byte	0x16
	.long	0x46c
	.quad	.LFB48
	.quad	.LFE48-.LFB48
	.uleb128 0x1
	.byte	0x9c
	.long	0x10ac
	.uleb128 0x19
	.string	"a"
	.byte	0x1
	.value	0x114
	.byte	0x4a
	.long	0x46c
	.long	.LLST4
	.long	.LVUS4
	.uleb128 0x19
	.string	"b"
	.byte	0x1
	.value	0x114
	.byte	0x61
	.long	0x46c
	.long	.LLST5
	.long	.LVUS5
	.uleb128 0x1d
	.string	"a1"
	.byte	0x1
	.value	0x115
	.byte	0x9
	.long	0x34
	.long	.LLST6
	.long	.LVUS6
	.uleb128 0x1d
	.string	"b1"
	.byte	0x1
	.value	0x116
	.byte	0x9
	.long	0x34
	.long	.LLST7
	.long	.LVUS7
	.uleb128 0x1e
	.quad	.LVL9
	.long	0x1937
	.long	0x1086
	.uleb128 0x1b
	.uleb128 0x1
	.byte	0x55
	.uleb128 0x3
	.byte	0xf3
	.uleb128 0x1
	.byte	0x55
	.byte	0
	.uleb128 0x1e
	.quad	.LVL11
	.long	0x1937
	.long	0x109e
	.uleb128 0x1b
	.uleb128 0x1
	.byte	0x55
	.uleb128 0x2
	.byte	0x76
	.sleb128 0
	.byte	0
	.uleb128 0x1f
	.quad	.LVL14
	.long	0x1943
	.byte	0
	.uleb128 0x1c
	.long	.LASF122
	.byte	0x1
	.value	0x10e
	.byte	0x16
	.long	0x46c
	.quad	.LFB47
	.quad	.LFE47-.LFB47
	.uleb128 0x1
	.byte	0x9c
	.long	0x115c
	.uleb128 0x19
	.string	"a"
	.byte	0x1
	.value	0x10e
	.byte	0x49
	.long	0x46c
	.long	.LLST30
	.long	.LVUS30
	.uleb128 0x19
	.string	"b"
	.byte	0x1
	.value	0x10e
	.byte	0x60
	.long	0x46c
	.long	.LLST31
	.long	.LVUS31
	.uleb128 0x1d
	.string	"a1"
	.byte	0x1
	.value	0x10f
	.byte	0x9
	.long	0x34
	.long	.LLST32
	.long	.LVUS32
	.uleb128 0x1d
	.string	"b1"
	.byte	0x1
	.value	0x110
	.byte	0x9
	.long	0x34
	.long	.LLST33
	.long	.LVUS33
	.uleb128 0x1e
	.quad	.LVL56
	.long	0x1937
	.long	0x1136
	.uleb128 0x1b
	.uleb128 0x1
	.byte	0x55
	.uleb128 0x3
	.byte	0xf3
	.uleb128 0x1
	.byte	0x55
	.byte	0
	.uleb128 0x1e
	.quad	.LVL58
	.long	0x1937
	.long	0x114e
	.uleb128 0x1b
	.uleb128 0x1
	.byte	0x55
	.uleb128 0x2
	.byte	0x76
	.sleb128 0
	.byte	0
	.uleb128 0x1f
	.quad	.LVL61
	.long	0x18cd
	.byte	0
	.uleb128 0x1c
	.long	.LASF123
	.byte	0x1
	.value	0x108
	.byte	0x16
	.long	0x46c
	.quad	.LFB46
	.quad	.LFE46-.LFB46
	.uleb128 0x1
	.byte	0x9c
	.long	0x120c
	.uleb128 0x19
	.string	"a"
	.byte	0x1
	.value	0x108
	.byte	0x4a
	.long	0x46c
	.long	.LLST26
	.long	.LVUS26
	.uleb128 0x19
	.string	"b"
	.byte	0x1
	.value	0x108
	.byte	0x61
	.long	0x46c
	.long	.LLST27
	.long	.LVUS27
	.uleb128 0x1d
	.string	"a1"
	.byte	0x1
	.value	0x109
	.byte	0x9
	.long	0x34
	.long	.LLST28
	.long	.LVUS28
	.uleb128 0x1d
	.string	"b1"
	.byte	0x1
	.value	0x10a
	.byte	0x9
	.long	0x34
	.long	.LLST29
	.long	.LVUS29
	.uleb128 0x1e
	.quad	.LVL49
	.long	0x1937
	.long	0x11e6
	.uleb128 0x1b
	.uleb128 0x1
	.byte	0x55
	.uleb128 0x3
	.byte	0xf3
	.uleb128 0x1
	.byte	0x55
	.byte	0
	.uleb128 0x1e
	.quad	.LVL51
	.long	0x1937
	.long	0x11fe
	.uleb128 0x1b
	.uleb128 0x1
	.byte	0x55
	.uleb128 0x2
	.byte	0x76
	.sleb128 0
	.byte	0
	.uleb128 0x1f
	.quad	.LVL54
	.long	0x18cd
	.byte	0
	.uleb128 0x1c
	.long	.LASF124
	.byte	0x1
	.value	0x101
	.byte	0x16
	.long	0x46c
	.quad	.LFB45
	.quad	.LFE45-.LFB45
	.uleb128 0x1
	.byte	0x9c
	.long	0x12bc
	.uleb128 0x19
	.string	"a"
	.byte	0x1
	.value	0x101
	.byte	0x49
	.long	0x46c
	.long	.LLST22
	.long	.LVUS22
	.uleb128 0x19
	.string	"b"
	.byte	0x1
	.value	0x101
	.byte	0x60
	.long	0x46c
	.long	.LLST23
	.long	.LVUS23
	.uleb128 0x1d
	.string	"a1"
	.byte	0x1
	.value	0x102
	.byte	0x9
	.long	0x34
	.long	.LLST24
	.long	.LVUS24
	.uleb128 0x1d
	.string	"b1"
	.byte	0x1
	.value	0x103
	.byte	0x9
	.long	0x34
	.long	.LLST25
	.long	.LVUS25
	.uleb128 0x1e
	.quad	.LVL42
	.long	0x1937
	.long	0x1296
	.uleb128 0x1b
	.uleb128 0x1
	.byte	0x55
	.uleb128 0x3
	.byte	0xf3
	.uleb128 0x1
	.byte	0x55
	.byte	0
	.uleb128 0x1e
	.quad	.LVL44
	.long	0x1937
	.long	0x12ae
	.uleb128 0x1b
	.uleb128 0x1
	.byte	0x55
	.uleb128 0x2
	.byte	0x76
	.sleb128 0
	.byte	0
	.uleb128 0x1f
	.quad	.LVL47
	.long	0x18cd
	.byte	0
	.uleb128 0x23
	.long	.LASF125
	.byte	0x1
	.byte	0xfa
	.byte	0x16
	.long	0x46c
	.quad	.LFB44
	.quad	.LFE44-.LFB44
	.uleb128 0x1
	.byte	0x9c
	.long	0x1367
	.uleb128 0x24
	.string	"a"
	.byte	0x1
	.byte	0xfa
	.byte	0x4f
	.long	0x46c
	.long	.LLST0
	.long	.LVUS0
	.uleb128 0x24
	.string	"b"
	.byte	0x1
	.byte	0xfa
	.byte	0x66
	.long	0x46c
	.long	.LLST1
	.long	.LVUS1
	.uleb128 0x25
	.string	"a1"
	.byte	0x1
	.byte	0xfb
	.byte	0x9
	.long	0x34
	.long	.LLST2
	.long	.LVUS2
	.uleb128 0x25
	.string	"b1"
	.byte	0x1
	.byte	0xfc
	.byte	0x9
	.long	0x34
	.long	.LLST3
	.long	.LVUS3
	.uleb128 0x1e
	.quad	.LVL1
	.long	0x1937
	.long	0x1341
	.uleb128 0x1b
	.uleb128 0x1
	.byte	0x55
	.uleb128 0x3
	.byte	0xf3
	.uleb128 0x1
	.byte	0x55
	.byte	0
	.uleb128 0x1e
	.quad	.LVL3
	.long	0x1937
	.long	0x1359
	.uleb128 0x1b
	.uleb128 0x1
	.byte	0x55
	.uleb128 0x2
	.byte	0x76
	.sleb128 0
	.byte	0
	.uleb128 0x1f
	.quad	.LVL7
	.long	0x1943
	.byte	0
	.uleb128 0x23
	.long	.LASF126
	.byte	0x1
	.byte	0xf3
	.byte	0x16
	.long	0x46c
	.quad	.LFB43
	.quad	.LFE43-.LFB43
	.uleb128 0x1
	.byte	0x9c
	.long	0x142e
	.uleb128 0x24
	.string	"a"
	.byte	0x1
	.byte	0xf3
	.byte	0x4d
	.long	0x46c
	.long	.LLST18
	.long	.LVUS18
	.uleb128 0x24
	.string	"b"
	.byte	0x1
	.byte	0xf3
	.byte	0x64
	.long	0x46c
	.long	.LLST19
	.long	.LVUS19
	.uleb128 0x25
	.string	"a1"
	.byte	0x1
	.byte	0xf4
	.byte	0x9
	.long	0x34
	.long	.LLST20
	.long	.LVUS20
	.uleb128 0x25
	.string	"b1"
	.byte	0x1
	.byte	0xf5
	.byte	0x9
	.long	0x34
	.long	.LLST21
	.long	.LVUS21
	.uleb128 0x1e
	.quad	.LVL34
	.long	0x1937
	.long	0x13ec
	.uleb128 0x1b
	.uleb128 0x1
	.byte	0x55
	.uleb128 0x3
	.byte	0xf3
	.uleb128 0x1
	.byte	0x55
	.byte	0
	.uleb128 0x1e
	.quad	.LVL36
	.long	0x1937
	.long	0x1404
	.uleb128 0x1b
	.uleb128 0x1
	.byte	0x55
	.uleb128 0x2
	.byte	0x76
	.sleb128 0
	.byte	0
	.uleb128 0x1e
	.quad	.LVL37
	.long	0x194f
	.long	0x1420
	.uleb128 0x1b
	.uleb128 0x1
	.byte	0x61
	.uleb128 0x6
	.byte	0x73
	.sleb128 0
	.byte	0xf7
	.uleb128 0x34
	.byte	0xf7
	.uleb128 0x2d
	.byte	0
	.uleb128 0x1f
	.quad	.LVL40
	.long	0x18cd
	.byte	0
	.uleb128 0x23
	.long	.LASF127
	.byte	0x1
	.byte	0xec
	.byte	0x16
	.long	0x46c
	.quad	.LFB42
	.quad	.LFE42-.LFB42
	.uleb128 0x1
	.byte	0x9c
	.long	0x14d9
	.uleb128 0x24
	.string	"a"
	.byte	0x1
	.byte	0xec
	.byte	0x4c
	.long	0x46c
	.long	.LLST14
	.long	.LVUS14
	.uleb128 0x24
	.string	"b"
	.byte	0x1
	.byte	0xec
	.byte	0x63
	.long	0x46c
	.long	.LLST15
	.long	.LVUS15
	.uleb128 0x25
	.string	"a1"
	.byte	0x1
	.byte	0xed
	.byte	0x9
	.long	0x34
	.long	.LLST16
	.long	.LVUS16
	.uleb128 0x25
	.string	"b1"
	.byte	0x1
	.byte	0xee
	.byte	0x9
	.long	0x34
	.long	.LLST17
	.long	.LVUS17
	.uleb128 0x1e
	.quad	.LVL27
	.long	0x1937
	.long	0x14b3
	.uleb128 0x1b
	.uleb128 0x1
	.byte	0x55
	.uleb128 0x3
	.byte	0xf3
	.uleb128 0x1
	.byte	0x55
	.byte	0
	.uleb128 0x1e
	.quad	.LVL29
	.long	0x1937
	.long	0x14cb
	.uleb128 0x1b
	.uleb128 0x1
	.byte	0x55
	.uleb128 0x2
	.byte	0x76
	.sleb128 0
	.byte	0
	.uleb128 0x1f
	.quad	.LVL32
	.long	0x18cd
	.byte	0
	.uleb128 0x23
	.long	.LASF128
	.byte	0x1
	.byte	0xe5
	.byte	0x16
	.long	0x46c
	.quad	.LFB41
	.quad	.LFE41-.LFB41
	.uleb128 0x1
	.byte	0x9c
	.long	0x1584
	.uleb128 0x24
	.string	"a"
	.byte	0x1
	.byte	0xe5
	.byte	0x4c
	.long	0x46c
	.long	.LLST10
	.long	.LVUS10
	.uleb128 0x24
	.string	"b"
	.byte	0x1
	.byte	0xe5
	.byte	0x63
	.long	0x46c
	.long	.LLST11
	.long	.LVUS11
	.uleb128 0x25
	.string	"a1"
	.byte	0x1
	.byte	0xe6
	.byte	0x9
	.long	0x34
	.long	.LLST12
	.long	.LVUS12
	.uleb128 0x25
	.string	"b1"
	.byte	0x1
	.byte	0xe7
	.byte	0x9
	.long	0x34
	.long	.LLST13
	.long	.LVUS13
	.uleb128 0x1e
	.quad	.LVL20
	.long	0x1937
	.long	0x155e
	.uleb128 0x1b
	.uleb128 0x1
	.byte	0x55
	.uleb128 0x3
	.byte	0xf3
	.uleb128 0x1
	.byte	0x55
	.byte	0
	.uleb128 0x1e
	.quad	.LVL22
	.long	0x1937
	.long	0x1576
	.uleb128 0x1b
	.uleb128 0x1
	.byte	0x55
	.uleb128 0x2
	.byte	0x76
	.sleb128 0
	.byte	0
	.uleb128 0x1f
	.quad	.LVL25
	.long	0x18cd
	.byte	0
	.uleb128 0x23
	.long	.LASF129
	.byte	0x1
	.byte	0x61
	.byte	0x16
	.long	0x46c
	.quad	.LFB40
	.quad	.LFE40-.LFB40
	.uleb128 0x1
	.byte	0x9c
	.long	0x16a2
	.uleb128 0x24
	.string	"a"
	.byte	0x1
	.byte	0x61
	.byte	0x44
	.long	0x46c
	.long	.LLST94
	.long	.LVUS94
	.uleb128 0x24
	.string	"b"
	.byte	0x1
	.byte	0x61
	.byte	0x5b
	.long	0x46c
	.long	.LLST95
	.long	.LVUS95
	.uleb128 0x24
	.string	"op"
	.byte	0x1
	.byte	0x61
	.byte	0x68
	.long	0x3af
	.long	.LLST96
	.long	.LVUS96
	.uleb128 0x25
	.string	"a1"
	.byte	0x1
	.byte	0x63
	.byte	0x9
	.long	0x34
	.long	.LLST97
	.long	.LVUS97
	.uleb128 0x25
	.string	"b1"
	.byte	0x1
	.byte	0x64
	.byte	0x9
	.long	0x34
	.long	.LLST98
	.long	.LVUS98
	.uleb128 0x25
	.string	"cs"
	.byte	0x1
	.byte	0x68
	.byte	0x1a
	.long	0x46c
	.long	.LLST99
	.long	.LVUS99
	.uleb128 0x25
	.string	"c"
	.byte	0x1
	.byte	0x6a
	.byte	0xb
	.long	0x16a2
	.long	.LLST100
	.long	.LVUS100
	.uleb128 0x1e
	.quad	.LVL169
	.long	0x1937
	.long	0x1641
	.uleb128 0x1b
	.uleb128 0x1
	.byte	0x55
	.uleb128 0x3
	.byte	0xf3
	.uleb128 0x1
	.byte	0x55
	.byte	0
	.uleb128 0x1e
	.quad	.LVL171
	.long	0x1937
	.long	0x1659
	.uleb128 0x1b
	.uleb128 0x1
	.byte	0x55
	.uleb128 0x2
	.byte	0x7c
	.sleb128 0
	.byte	0
	.uleb128 0x1e
	.quad	.LVL173
	.long	0x18cd
	.long	0x1670
	.uleb128 0x1b
	.uleb128 0x1
	.byte	0x55
	.uleb128 0x1
	.byte	0x30
	.byte	0
	.uleb128 0x1f
	.quad	.LVL191
	.long	0x1943
	.uleb128 0x26
	.quad	.LVL192
	.long	0x194f
	.uleb128 0x1b
	.uleb128 0x1
	.byte	0x61
	.uleb128 0x6
	.byte	0x73
	.sleb128 0
	.byte	0xf7
	.uleb128 0x34
	.byte	0xf7
	.uleb128 0x2d
	.uleb128 0x1b
	.uleb128 0x1
	.byte	0x62
	.uleb128 0x8
	.byte	0x91
	.sleb128 -36
	.byte	0x94
	.byte	0x4
	.byte	0xf7
	.uleb128 0x34
	.byte	0xf7
	.uleb128 0x2d
	.byte	0
	.byte	0
	.uleb128 0x6
	.byte	0x8
	.long	0x34
	.uleb128 0x23
	.long	.LASF130
	.byte	0x1
	.byte	0x22
	.byte	0x16
	.long	0x46c
	.quad	.LFB39
	.quad	.LFE39-.LFB39
	.uleb128 0x1
	.byte	0x9c
	.long	0x175a
	.uleb128 0x24
	.string	"a"
	.byte	0x1
	.byte	0x22
	.byte	0x45
	.long	0x46c
	.long	.LLST89
	.long	.LVUS89
	.uleb128 0x24
	.string	"b"
	.byte	0x1
	.byte	0x22
	.byte	0x5c
	.long	0x46c
	.long	.LLST90
	.long	.LVUS90
	.uleb128 0x24
	.string	"op"
	.byte	0x1
	.byte	0x22
	.byte	0x69
	.long	0x3af
	.long	.LLST91
	.long	.LVUS91
	.uleb128 0x25
	.string	"b1"
	.byte	0x1
	.byte	0x24
	.byte	0x9
	.long	0x34
	.long	.LLST92
	.long	.LVUS92
	.uleb128 0x25
	.string	"c"
	.byte	0x1
	.byte	0x26
	.byte	0xb
	.long	0x16a2
	.long	.LLST93
	.long	.LVUS93
	.uleb128 0x1e
	.quad	.LVL155
	.long	0x1937
	.long	0x173f
	.uleb128 0x1b
	.uleb128 0x1
	.byte	0x55
	.uleb128 0x3
	.byte	0xf3
	.uleb128 0x1
	.byte	0x54
	.byte	0
	.uleb128 0x1f
	.quad	.LVL163
	.long	0x1943
	.uleb128 0x27
	.quad	.LVL164
	.long	0x194f
	.byte	0
	.uleb128 0x23
	.long	.LASF131
	.byte	0x1
	.byte	0x1d
	.byte	0x16
	.long	0x46c
	.quad	.LFB38
	.quad	.LFE38-.LFB38
	.uleb128 0x1
	.byte	0x9c
	.long	0x17ee
	.uleb128 0x28
	.long	.LASF132
	.byte	0x1
	.byte	0x1d
	.byte	0x43
	.long	0xcf
	.long	.LLST86
	.long	.LVUS86
	.uleb128 0x28
	.long	.LASF133
	.byte	0x1
	.byte	0x1d
	.byte	0x5e
	.long	0xcf
	.long	.LLST87
	.long	.LVUS87
	.uleb128 0x28
	.long	.LASF88
	.byte	0x1
	.byte	0x1d
	.byte	0x72
	.long	0xbe
	.long	.LLST88
	.long	.LVUS88
	.uleb128 0x1e
	.quad	.LVL151
	.long	0x195b
	.long	0x17e0
	.uleb128 0x1b
	.uleb128 0x1
	.byte	0x55
	.uleb128 0x3
	.byte	0xf3
	.uleb128 0x1
	.byte	0x55
	.uleb128 0x1b
	.uleb128 0x1
	.byte	0x54
	.uleb128 0x1
	.byte	0x30
	.uleb128 0x1b
	.uleb128 0x1
	.byte	0x51
	.uleb128 0x6
	.byte	0xf3
	.uleb128 0x1
	.byte	0x51
	.byte	0x8
	.byte	0xff
	.byte	0x1a
	.byte	0
	.uleb128 0x1f
	.quad	.LVL152
	.long	0x18cd
	.byte	0
	.uleb128 0x23
	.long	.LASF134
	.byte	0x1
	.byte	0x17
	.byte	0xf
	.long	0x46c
	.quad	.LFB37
	.quad	.LFE37-.LFB37
	.uleb128 0x1
	.byte	0x9c
	.long	0x1855
	.uleb128 0x28
	.long	.LASF135
	.byte	0x1
	.byte	0x17
	.byte	0x39
	.long	0xcf
	.long	.LLST85
	.long	.LVUS85
	.uleb128 0x1e
	.quad	.LVL147
	.long	0x195b
	.long	0x1847
	.uleb128 0x1b
	.uleb128 0x1
	.byte	0x55
	.uleb128 0x3
	.byte	0xf3
	.uleb128 0x1
	.byte	0x55
	.uleb128 0x1b
	.uleb128 0x1
	.byte	0x54
	.uleb128 0x1
	.byte	0x30
	.uleb128 0x1b
	.uleb128 0x1
	.byte	0x51
	.uleb128 0x1
	.byte	0x3a
	.byte	0
	.uleb128 0x1f
	.quad	.LVL148
	.long	0x18cd
	.byte	0
	.uleb128 0x23
	.long	.LASF136
	.byte	0x1
	.byte	0xe
	.byte	0xf
	.long	0x46c
	.quad	.LFB36
	.quad	.LFE36-.LFB36
	.uleb128 0x1
	.byte	0x9c
	.long	0x18c7
	.uleb128 0x28
	.long	.LASF74
	.byte	0x1
	.byte	0xe
	.byte	0x35
	.long	0x3af
	.long	.LLST82
	.long	.LVUS82
	.uleb128 0x28
	.long	.LASF137
	.byte	0x1
	.byte	0xe
	.byte	0x3f
	.long	0x34
	.long	.LLST83
	.long	.LVUS83
	.uleb128 0x29
	.long	.LASF138
	.byte	0x1
	.byte	0xf
	.byte	0x1d
	.long	0x18c7
	.long	.LLST84
	.long	.LVUS84
	.uleb128 0x26
	.quad	.LVL144
	.long	0x1967
	.uleb128 0x1b
	.uleb128 0x1
	.byte	0x55
	.uleb128 0x1
	.byte	0x3d
	.byte	0
	.byte	0
	.uleb128 0x6
	.byte	0x8
	.long	0x51f
	.uleb128 0x23
	.long	.LASF139
	.byte	0x1
	.byte	0x5
	.byte	0xf
	.long	0x46c
	.quad	.LFB35
	.quad	.LFE35-.LFB35
	.uleb128 0x1
	.byte	0x9c
	.long	0x192b
	.uleb128 0x28
	.long	.LASF137
	.byte	0x1
	.byte	0x5
	.byte	0x27
	.long	0x34
	.long	.LLST8
	.long	.LVUS8
	.uleb128 0x29
	.long	.LASF138
	.byte	0x1
	.byte	0x6
	.byte	0x1a
	.long	0x18c7
	.long	.LLST9
	.long	.LVUS9
	.uleb128 0x26
	.quad	.LVL17
	.long	0x1967
	.uleb128 0x1b
	.uleb128 0x1
	.byte	0x55
	.uleb128 0x1
	.byte	0x3d
	.byte	0
	.byte	0
	.uleb128 0x2a
	.long	.LASF140
	.long	.LASF140
	.byte	0x13
	.byte	0x14
	.byte	0x5
	.uleb128 0x2a
	.long	.LASF141
	.long	.LASF141
	.byte	0xd
	.byte	0x21
	.byte	0x5
	.uleb128 0x2a
	.long	.LASF142
	.long	.LASF142
	.byte	0x14
	.byte	0x10
	.byte	0x16
	.uleb128 0x2b
	.string	"pow"
	.string	"pow"
	.byte	0x16
	.byte	0x8c
	.byte	0x1
	.uleb128 0x2a
	.long	.LASF143
	.long	.LASF143
	.byte	0x15
	.byte	0xb0
	.byte	0x11
	.uleb128 0x2a
	.long	.LASF144
	.long	.LASF144
	.byte	0xe
	.byte	0x26
	.byte	0x8
	.byte	0
	.section	.debug_abbrev,"",@progbits
.Ldebug_abbrev0:
	.uleb128 0x1
	.uleb128 0x11
	.byte	0x1
	.uleb128 0x25
	.uleb128 0xe
	.uleb128 0x13
	.uleb128 0xb
	.uleb128 0x3
	.uleb128 0xe
	.uleb128 0x1b
	.uleb128 0xe
	.uleb128 0x11
	.uleb128 0x1
	.uleb128 0x12
	.uleb128 0x7
	.uleb128 0x10
	.uleb128 0x17
	.byte	0
	.byte	0
	.uleb128 0x2
	.uleb128 0x24
	.byte	0
	.uleb128 0xb
	.uleb128 0xb
	.uleb128 0x3e
	.uleb128 0xb
	.uleb128 0x3
	.uleb128 0xe
	.byte	0
	.byte	0
	.uleb128 0x3
	.uleb128 0x24
	.byte	0
	.uleb128 0xb
	.uleb128 0xb
	.uleb128 0x3e
	.uleb128 0xb
	.uleb128 0x3
	.uleb128 0x8
	.byte	0
	.byte	0
	.uleb128 0x4
	.uleb128 0x16
	.byte	0
	.uleb128 0x3
	.uleb128 0xe
	.uleb128 0x3a
	.uleb128 0xb
	.uleb128 0x3b
	.uleb128 0xb
	.uleb128 0x39
	.uleb128 0xb
	.uleb128 0x49
	.uleb128 0x13
	.byte	0
	.byte	0
	.uleb128 0x5
	.uleb128 0xf
	.byte	0
	.uleb128 0xb
	.uleb128 0xb
	.byte	0
	.byte	0
	.uleb128 0x6
	.uleb128 0xf
	.byte	0
	.uleb128 0xb
	.uleb128 0xb
	.uleb128 0x49
	.uleb128 0x13
	.byte	0
	.byte	0
	.uleb128 0x7
	.uleb128 0x26
	.byte	0
	.uleb128 0x49
	.uleb128 0x13
	.byte	0
	.byte	0
	.uleb128 0x8
	.uleb128 0x13
	.byte	0x1
	.uleb128 0x3
	.uleb128 0xe
	.uleb128 0xb
	.uleb128 0xb
	.uleb128 0x3a
	.uleb128 0xb
	.uleb128 0x3b
	.uleb128 0xb
	.uleb128 0x39
	.uleb128 0xb
	.uleb128 0x1
	.uleb128 0x13
	.byte	0
	.byte	0
	.uleb128 0x9
	.uleb128 0xd
	.byte	0
	.uleb128 0x3
	.uleb128 0xe
	.uleb128 0x3a
	.uleb128 0xb
	.uleb128 0x3b
	.uleb128 0xb
	.uleb128 0x39
	.uleb128 0xb
	.uleb128 0x49
	.uleb128 0x13
	.uleb128 0x38
	.uleb128 0xb
	.byte	0
	.byte	0
	.uleb128 0xa
	.uleb128 0x16
	.byte	0
	.uleb128 0x3
	.uleb128 0xe
	.uleb128 0x3a
	.uleb128 0xb
	.uleb128 0x3b
	.uleb128 0xb
	.uleb128 0x39
	.uleb128 0xb
	.byte	0
	.byte	0
	.uleb128 0xb
	.uleb128 0x13
	.byte	0
	.uleb128 0x3
	.uleb128 0xe
	.uleb128 0x3c
	.uleb128 0x19
	.byte	0
	.byte	0
	.uleb128 0xc
	.uleb128 0x1
	.byte	0x1
	.uleb128 0x49
	.uleb128 0x13
	.uleb128 0x1
	.uleb128 0x13
	.byte	0
	.byte	0
	.uleb128 0xd
	.uleb128 0x21
	.byte	0
	.uleb128 0x49
	.uleb128 0x13
	.uleb128 0x2f
	.uleb128 0xb
	.byte	0
	.byte	0
	.uleb128 0xe
	.uleb128 0x34
	.byte	0
	.uleb128 0x3
	.uleb128 0xe
	.uleb128 0x3a
	.uleb128 0xb
	.uleb128 0x3b
	.uleb128 0xb
	.uleb128 0x39
	.uleb128 0xb
	.uleb128 0x49
	.uleb128 0x13
	.uleb128 0x3f
	.uleb128 0x19
	.uleb128 0x3c
	.uleb128 0x19
	.byte	0
	.byte	0
	.uleb128 0xf
	.uleb128 0x21
	.byte	0
	.byte	0
	.byte	0
	.uleb128 0x10
	.uleb128 0x34
	.byte	0
	.uleb128 0x3
	.uleb128 0xe
	.uleb128 0x3a
	.uleb128 0xb
	.uleb128 0x3b
	.uleb128 0x5
	.uleb128 0x39
	.uleb128 0xb
	.uleb128 0x49
	.uleb128 0x13
	.uleb128 0x3f
	.uleb128 0x19
	.uleb128 0x3c
	.uleb128 0x19
	.byte	0
	.byte	0
	.uleb128 0x11
	.uleb128 0x13
	.byte	0x1
	.uleb128 0xb
	.uleb128 0xb
	.uleb128 0x3a
	.uleb128 0xb
	.uleb128 0x3b
	.uleb128 0xb
	.uleb128 0x39
	.uleb128 0xb
	.uleb128 0x1
	.uleb128 0x13
	.byte	0
	.byte	0
	.uleb128 0x12
	.uleb128 0x34
	.byte	0
	.uleb128 0x3
	.uleb128 0xe
	.uleb128 0x3a
	.uleb128 0xb
	.uleb128 0x3b
	.uleb128 0xb
	.uleb128 0x39
	.uleb128 0xb
	.uleb128 0x49
	.uleb128 0x13
	.uleb128 0x3f
	.uleb128 0x19
	.uleb128 0x2
	.uleb128 0x18
	.byte	0
	.byte	0
	.uleb128 0x13
	.uleb128 0x15
	.byte	0x1
	.uleb128 0x27
	.uleb128 0x19
	.uleb128 0x49
	.uleb128 0x13
	.uleb128 0x1
	.uleb128 0x13
	.byte	0
	.byte	0
	.uleb128 0x14
	.uleb128 0x5
	.byte	0
	.uleb128 0x49
	.uleb128 0x13
	.byte	0
	.byte	0
	.uleb128 0x15
	.uleb128 0xd
	.byte	0
	.uleb128 0x3
	.uleb128 0x8
	.uleb128 0x3a
	.uleb128 0xb
	.uleb128 0x3b
	.uleb128 0xb
	.uleb128 0x39
	.uleb128 0xb
	.uleb128 0x49
	.uleb128 0x13
	.uleb128 0x38
	.uleb128 0xb
	.byte	0
	.byte	0
	.uleb128 0x16
	.uleb128 0x34
	.byte	0
	.uleb128 0x47
	.uleb128 0x13
	.uleb128 0x3a
	.uleb128 0xb
	.uleb128 0x3b
	.uleb128 0x5
	.uleb128 0x39
	.uleb128 0xb
	.uleb128 0x2
	.uleb128 0x18
	.byte	0
	.byte	0
	.uleb128 0x17
	.uleb128 0x2e
	.byte	0x1
	.uleb128 0x3f
	.uleb128 0x19
	.uleb128 0x3
	.uleb128 0xe
	.uleb128 0x3a
	.uleb128 0xb
	.uleb128 0x3b
	.uleb128 0x5
	.uleb128 0x39
	.uleb128 0xb
	.uleb128 0x27
	.uleb128 0x19
	.uleb128 0x11
	.uleb128 0x1
	.uleb128 0x12
	.uleb128 0x7
	.uleb128 0x40
	.uleb128 0x18
	.uleb128 0x2117
	.uleb128 0x19
	.uleb128 0x1
	.uleb128 0x13
	.byte	0
	.byte	0
	.uleb128 0x18
	.uleb128 0x5
	.byte	0
	.uleb128 0x3
	.uleb128 0x8
	.uleb128 0x3a
	.uleb128 0xb
	.uleb128 0x3b
	.uleb128 0x5
	.uleb128 0x39
	.uleb128 0xb
	.uleb128 0x49
	.uleb128 0x13
	.uleb128 0x2
	.uleb128 0x18
	.byte	0
	.byte	0
	.uleb128 0x19
	.uleb128 0x5
	.byte	0
	.uleb128 0x3
	.uleb128 0x8
	.uleb128 0x3a
	.uleb128 0xb
	.uleb128 0x3b
	.uleb128 0x5
	.uleb128 0x39
	.uleb128 0xb
	.uleb128 0x49
	.uleb128 0x13
	.uleb128 0x2
	.uleb128 0x17
	.uleb128 0x2137
	.uleb128 0x17
	.byte	0
	.byte	0
	.uleb128 0x1a
	.uleb128 0x4109
	.byte	0x1
	.uleb128 0x11
	.uleb128 0x1
	.uleb128 0x2115
	.uleb128 0x19
	.uleb128 0x31
	.uleb128 0x13
	.byte	0
	.byte	0
	.uleb128 0x1b
	.uleb128 0x410a
	.byte	0
	.uleb128 0x2
	.uleb128 0x18
	.uleb128 0x2111
	.uleb128 0x18
	.byte	0
	.byte	0
	.uleb128 0x1c
	.uleb128 0x2e
	.byte	0x1
	.uleb128 0x3f
	.uleb128 0x19
	.uleb128 0x3
	.uleb128 0xe
	.uleb128 0x3a
	.uleb128 0xb
	.uleb128 0x3b
	.uleb128 0x5
	.uleb128 0x39
	.uleb128 0xb
	.uleb128 0x27
	.uleb128 0x19
	.uleb128 0x49
	.uleb128 0x13
	.uleb128 0x11
	.uleb128 0x1
	.uleb128 0x12
	.uleb128 0x7
	.uleb128 0x40
	.uleb128 0x18
	.uleb128 0x2117
	.uleb128 0x19
	.uleb128 0x1
	.uleb128 0x13
	.byte	0
	.byte	0
	.uleb128 0x1d
	.uleb128 0x34
	.byte	0
	.uleb128 0x3
	.uleb128 0x8
	.uleb128 0x3a
	.uleb128 0xb
	.uleb128 0x3b
	.uleb128 0x5
	.uleb128 0x39
	.uleb128 0xb
	.uleb128 0x49
	.uleb128 0x13
	.uleb128 0x2
	.uleb128 0x17
	.uleb128 0x2137
	.uleb128 0x17
	.byte	0
	.byte	0
	.uleb128 0x1e
	.uleb128 0x4109
	.byte	0x1
	.uleb128 0x11
	.uleb128 0x1
	.uleb128 0x31
	.uleb128 0x13
	.uleb128 0x1
	.uleb128 0x13
	.byte	0
	.byte	0
	.uleb128 0x1f
	.uleb128 0x4109
	.byte	0
	.uleb128 0x11
	.uleb128 0x1
	.uleb128 0x2115
	.uleb128 0x19
	.uleb128 0x31
	.uleb128 0x13
	.byte	0
	.byte	0
	.uleb128 0x20
	.uleb128 0x2e
	.byte	0x1
	.uleb128 0x3f
	.uleb128 0x19
	.uleb128 0x3
	.uleb128 0xe
	.uleb128 0x3a
	.uleb128 0xb
	.uleb128 0x3b
	.uleb128 0x5
	.uleb128 0x39
	.uleb128 0xb
	.uleb128 0x27
	.uleb128 0x19
	.uleb128 0x49
	.uleb128 0x13
	.uleb128 0x1
	.uleb128 0x13
	.byte	0
	.byte	0
	.uleb128 0x21
	.uleb128 0x5
	.byte	0
	.uleb128 0x3
	.uleb128 0x8
	.uleb128 0x3a
	.uleb128 0xb
	.uleb128 0x3b
	.uleb128 0x5
	.uleb128 0x39
	.uleb128 0xb
	.uleb128 0x49
	.uleb128 0x13
	.byte	0
	.byte	0
	.uleb128 0x22
	.uleb128 0x34
	.byte	0
	.uleb128 0x3
	.uleb128 0x8
	.uleb128 0x3a
	.uleb128 0xb
	.uleb128 0x3b
	.uleb128 0x5
	.uleb128 0x39
	.uleb128 0xb
	.uleb128 0x49
	.uleb128 0x13
	.byte	0
	.byte	0
	.uleb128 0x23
	.uleb128 0x2e
	.byte	0x1
	.uleb128 0x3f
	.uleb128 0x19
	.uleb128 0x3
	.uleb128 0xe
	.uleb128 0x3a
	.uleb128 0xb
	.uleb128 0x3b
	.uleb128 0xb
	.uleb128 0x39
	.uleb128 0xb
	.uleb128 0x27
	.uleb128 0x19
	.uleb128 0x49
	.uleb128 0x13
	.uleb128 0x11
	.uleb128 0x1
	.uleb128 0x12
	.uleb128 0x7
	.uleb128 0x40
	.uleb128 0x18
	.uleb128 0x2117
	.uleb128 0x19
	.uleb128 0x1
	.uleb128 0x13
	.byte	0
	.byte	0
	.uleb128 0x24
	.uleb128 0x5
	.byte	0
	.uleb128 0x3
	.uleb128 0x8
	.uleb128 0x3a
	.uleb128 0xb
	.uleb128 0x3b
	.uleb128 0xb
	.uleb128 0x39
	.uleb128 0xb
	.uleb128 0x49
	.uleb128 0x13
	.uleb128 0x2
	.uleb128 0x17
	.uleb128 0x2137
	.uleb128 0x17
	.byte	0
	.byte	0
	.uleb128 0x25
	.uleb128 0x34
	.byte	0
	.uleb128 0x3
	.uleb128 0x8
	.uleb128 0x3a
	.uleb128 0xb
	.uleb128 0x3b
	.uleb128 0xb
	.uleb128 0x39
	.uleb128 0xb
	.uleb128 0x49
	.uleb128 0x13
	.uleb128 0x2
	.uleb128 0x17
	.uleb128 0x2137
	.uleb128 0x17
	.byte	0
	.byte	0
	.uleb128 0x26
	.uleb128 0x4109
	.byte	0x1
	.uleb128 0x11
	.uleb128 0x1
	.uleb128 0x31
	.uleb128 0x13
	.byte	0
	.byte	0
	.uleb128 0x27
	.uleb128 0x4109
	.byte	0
	.uleb128 0x11
	.uleb128 0x1
	.uleb128 0x31
	.uleb128 0x13
	.byte	0
	.byte	0
	.uleb128 0x28
	.uleb128 0x5
	.byte	0
	.uleb128 0x3
	.uleb128 0xe
	.uleb128 0x3a
	.uleb128 0xb
	.uleb128 0x3b
	.uleb128 0xb
	.uleb128 0x39
	.uleb128 0xb
	.uleb128 0x49
	.uleb128 0x13
	.uleb128 0x2
	.uleb128 0x17
	.uleb128 0x2137
	.uleb128 0x17
	.byte	0
	.byte	0
	.uleb128 0x29
	.uleb128 0x34
	.byte	0
	.uleb128 0x3
	.uleb128 0xe
	.uleb128 0x3a
	.uleb128 0xb
	.uleb128 0x3b
	.uleb128 0xb
	.uleb128 0x39
	.uleb128 0xb
	.uleb128 0x49
	.uleb128 0x13
	.uleb128 0x2
	.uleb128 0x17
	.uleb128 0x2137
	.uleb128 0x17
	.byte	0
	.byte	0
	.uleb128 0x2a
	.uleb128 0x2e
	.byte	0
	.uleb128 0x3f
	.uleb128 0x19
	.uleb128 0x3c
	.uleb128 0x19
	.uleb128 0x6e
	.uleb128 0xe
	.uleb128 0x3
	.uleb128 0xe
	.uleb128 0x3a
	.uleb128 0xb
	.uleb128 0x3b
	.uleb128 0xb
	.uleb128 0x39
	.uleb128 0xb
	.byte	0
	.byte	0
	.uleb128 0x2b
	.uleb128 0x2e
	.byte	0
	.uleb128 0x3f
	.uleb128 0x19
	.uleb128 0x3c
	.uleb128 0x19
	.uleb128 0x6e
	.uleb128 0x8
	.uleb128 0x3
	.uleb128 0x8
	.uleb128 0x3a
	.uleb128 0xb
	.uleb128 0x3b
	.uleb128 0xb
	.uleb128 0x39
	.uleb128 0xb
	.byte	0
	.byte	0
	.byte	0
	.section	.debug_loc,"",@progbits
.Ldebug_loc0:
.LVUS101:
	.uleb128 0
	.uleb128 .LVU504
	.uleb128 .LVU504
	.uleb128 0
.LLST101:
	.quad	.LVL201-.Ltext0
	.quad	.LVL202-.Ltext0
	.value	0x1
	.byte	0x55
	.quad	.LVL202-.Ltext0
	.quad	.LFE63-.Ltext0
	.value	0x4
	.byte	0xf3
	.uleb128 0x1
	.byte	0x55
	.byte	0x9f
	.quad	0
	.quad	0
.LVUS79:
	.uleb128 0
	.uleb128 .LVU331
	.uleb128 .LVU331
	.uleb128 0
.LLST79:
	.quad	.LVL138-.Ltext0
	.quad	.LVL139-1-.Ltext0
	.value	0x1
	.byte	0x55
	.quad	.LVL139-1-.Ltext0
	.quad	.LFE62-.Ltext0
	.value	0x4
	.byte	0xf3
	.uleb128 0x1
	.byte	0x55
	.byte	0x9f
	.quad	0
	.quad	0
.LVUS80:
	.uleb128 0
	.uleb128 .LVU331
	.uleb128 .LVU331
	.uleb128 0
.LLST80:
	.quad	.LVL138-.Ltext0
	.quad	.LVL139-1-.Ltext0
	.value	0x1
	.byte	0x54
	.quad	.LVL139-1-.Ltext0
	.quad	.LFE62-.Ltext0
	.value	0x4
	.byte	0xf3
	.uleb128 0x1
	.byte	0x54
	.byte	0x9f
	.quad	0
	.quad	0
.LVUS81:
	.uleb128 .LVU331
	.uleb128 .LVU334
	.uleb128 .LVU334
	.uleb128 .LVU335
.LLST81:
	.quad	.LVL139-.Ltext0
	.quad	.LVL140-.Ltext0
	.value	0x1
	.byte	0x50
	.quad	.LVL140-.Ltext0
	.quad	.LVL141-1-.Ltext0
	.value	0x4
	.byte	0x70
	.sleb128 0
	.byte	0x1f
	.byte	0x9f
	.quad	0
	.quad	0
.LVUS76:
	.uleb128 0
	.uleb128 .LVU321
	.uleb128 .LVU321
	.uleb128 0
.LLST76:
	.quad	.LVL134-.Ltext0
	.quad	.LVL135-1-.Ltext0
	.value	0x1
	.byte	0x55
	.quad	.LVL135-1-.Ltext0
	.quad	.LFE61-.Ltext0
	.value	0x4
	.byte	0xf3
	.uleb128 0x1
	.byte	0x55
	.byte	0x9f
	.quad	0
	.quad	0
.LVUS77:
	.uleb128 0
	.uleb128 .LVU321
	.uleb128 .LVU321
	.uleb128 0
.LLST77:
	.quad	.LVL134-.Ltext0
	.quad	.LVL135-1-.Ltext0
	.value	0x1
	.byte	0x54
	.quad	.LVL135-1-.Ltext0
	.quad	.LFE61-.Ltext0
	.value	0x4
	.byte	0xf3
	.uleb128 0x1
	.byte	0x54
	.byte	0x9f
	.quad	0
	.quad	0
.LVUS78:
	.uleb128 .LVU323
	.uleb128 .LVU325
.LLST78:
	.quad	.LVL136-.Ltext0
	.quad	.LVL137-1-.Ltext0
	.value	0x1
	.byte	0x50
	.quad	0
	.quad	0
.LVUS73:
	.uleb128 0
	.uleb128 .LVU311
	.uleb128 .LVU311
	.uleb128 0
.LLST73:
	.quad	.LVL130-.Ltext0
	.quad	.LVL131-1-.Ltext0
	.value	0x1
	.byte	0x55
	.quad	.LVL131-1-.Ltext0
	.quad	.LFE60-.Ltext0
	.value	0x4
	.byte	0xf3
	.uleb128 0x1
	.byte	0x55
	.byte	0x9f
	.quad	0
	.quad	0
.LVUS74:
	.uleb128 0
	.uleb128 .LVU311
	.uleb128 .LVU311
	.uleb128 0
.LLST74:
	.quad	.LVL130-.Ltext0
	.quad	.LVL131-1-.Ltext0
	.value	0x1
	.byte	0x54
	.quad	.LVL131-1-.Ltext0
	.quad	.LFE60-.Ltext0
	.value	0x4
	.byte	0xf3
	.uleb128 0x1
	.byte	0x54
	.byte	0x9f
	.quad	0
	.quad	0
.LVUS75:
	.uleb128 .LVU311
	.uleb128 .LVU314
	.uleb128 .LVU314
	.uleb128 .LVU315
.LLST75:
	.quad	.LVL131-.Ltext0
	.quad	.LVL132-.Ltext0
	.value	0x1
	.byte	0x50
	.quad	.LVL132-.Ltext0
	.quad	.LVL133-1-.Ltext0
	.value	0x4
	.byte	0x70
	.sleb128 0
	.byte	0x20
	.byte	0x9f
	.quad	0
	.quad	0
.LVUS70:
	.uleb128 0
	.uleb128 .LVU301
	.uleb128 .LVU301
	.uleb128 0
.LLST70:
	.quad	.LVL127-.Ltext0
	.quad	.LVL128-1-.Ltext0
	.value	0x1
	.byte	0x55
	.quad	.LVL128-1-.Ltext0
	.quad	.LFE59-.Ltext0
	.value	0x4
	.byte	0xf3
	.uleb128 0x1
	.byte	0x55
	.byte	0x9f
	.quad	0
	.quad	0
.LVUS71:
	.uleb128 0
	.uleb128 .LVU301
	.uleb128 .LVU301
	.uleb128 0
.LLST71:
	.quad	.LVL127-.Ltext0
	.quad	.LVL128-1-.Ltext0
	.value	0x1
	.byte	0x54
	.quad	.LVL128-1-.Ltext0
	.quad	.LFE59-.Ltext0
	.value	0x4
	.byte	0xf3
	.uleb128 0x1
	.byte	0x54
	.byte	0x9f
	.quad	0
	.quad	0
.LVUS72:
	.uleb128 .LVU301
	.uleb128 .LVU305
.LLST72:
	.quad	.LVL128-.Ltext0
	.quad	.LVL129-1-.Ltext0
	.value	0x1
	.byte	0x50
	.quad	0
	.quad	0
.LVUS66:
	.uleb128 0
	.uleb128 .LVU285
	.uleb128 .LVU285
	.uleb128 0
.LLST66:
	.quad	.LVL120-.Ltext0
	.quad	.LVL121-1-.Ltext0
	.value	0x1
	.byte	0x55
	.quad	.LVL121-1-.Ltext0
	.quad	.LFE58-.Ltext0
	.value	0x4
	.byte	0xf3
	.uleb128 0x1
	.byte	0x55
	.byte	0x9f
	.quad	0
	.quad	0
.LVUS67:
	.uleb128 0
	.uleb128 .LVU285
	.uleb128 .LVU285
	.uleb128 .LVU294
	.uleb128 .LVU294
	.uleb128 0
.LLST67:
	.quad	.LVL120-.Ltext0
	.quad	.LVL121-1-.Ltext0
	.value	0x1
	.byte	0x54
	.quad	.LVL121-1-.Ltext0
	.quad	.LVL125-.Ltext0
	.value	0x1
	.byte	0x56
	.quad	.LVL125-.Ltext0
	.quad	.LFE58-.Ltext0
	.value	0x4
	.byte	0xf3
	.uleb128 0x1
	.byte	0x54
	.byte	0x9f
	.quad	0
	.quad	0
.LVUS68:
	.uleb128 .LVU287
	.uleb128 .LVU289
	.uleb128 .LVU289
	.uleb128 .LVU293
.LLST68:
	.quad	.LVL122-.Ltext0
	.quad	.LVL123-1-.Ltext0
	.value	0x1
	.byte	0x50
	.quad	.LVL123-1-.Ltext0
	.quad	.LVL124-.Ltext0
	.value	0x1
	.byte	0x53
	.quad	0
	.quad	0
.LVUS69:
	.uleb128 .LVU289
	.uleb128 .LVU295
.LLST69:
	.quad	.LVL123-.Ltext0
	.quad	.LVL126-1-.Ltext0
	.value	0x1
	.byte	0x50
	.quad	0
	.quad	0
.LVUS62:
	.uleb128 0
	.uleb128 .LVU269
	.uleb128 .LVU269
	.uleb128 0
.LLST62:
	.quad	.LVL113-.Ltext0
	.quad	.LVL114-1-.Ltext0
	.value	0x1
	.byte	0x55
	.quad	.LVL114-1-.Ltext0
	.quad	.LFE57-.Ltext0
	.value	0x4
	.byte	0xf3
	.uleb128 0x1
	.byte	0x55
	.byte	0x9f
	.quad	0
	.quad	0
.LVUS63:
	.uleb128 0
	.uleb128 .LVU269
	.uleb128 .LVU269
	.uleb128 .LVU278
	.uleb128 .LVU278
	.uleb128 0
.LLST63:
	.quad	.LVL113-.Ltext0
	.quad	.LVL114-1-.Ltext0
	.value	0x1
	.byte	0x54
	.quad	.LVL114-1-.Ltext0
	.quad	.LVL118-.Ltext0
	.value	0x1
	.byte	0x56
	.quad	.LVL118-.Ltext0
	.quad	.LFE57-.Ltext0
	.value	0x4
	.byte	0xf3
	.uleb128 0x1
	.byte	0x54
	.byte	0x9f
	.quad	0
	.quad	0
.LVUS64:
	.uleb128 .LVU271
	.uleb128 .LVU273
	.uleb128 .LVU273
	.uleb128 .LVU277
.LLST64:
	.quad	.LVL115-.Ltext0
	.quad	.LVL116-1-.Ltext0
	.value	0x1
	.byte	0x50
	.quad	.LVL116-1-.Ltext0
	.quad	.LVL117-.Ltext0
	.value	0x1
	.byte	0x53
	.quad	0
	.quad	0
.LVUS65:
	.uleb128 .LVU273
	.uleb128 .LVU279
.LLST65:
	.quad	.LVL116-.Ltext0
	.quad	.LVL119-1-.Ltext0
	.value	0x1
	.byte	0x50
	.quad	0
	.quad	0
.LVUS58:
	.uleb128 0
	.uleb128 .LVU252
	.uleb128 .LVU252
	.uleb128 0
.LLST58:
	.quad	.LVL106-.Ltext0
	.quad	.LVL107-1-.Ltext0
	.value	0x1
	.byte	0x55
	.quad	.LVL107-1-.Ltext0
	.quad	.LFE56-.Ltext0
	.value	0x4
	.byte	0xf3
	.uleb128 0x1
	.byte	0x55
	.byte	0x9f
	.quad	0
	.quad	0
.LVUS59:
	.uleb128 0
	.uleb128 .LVU252
	.uleb128 .LVU252
	.uleb128 .LVU262
	.uleb128 .LVU262
	.uleb128 0
.LLST59:
	.quad	.LVL106-.Ltext0
	.quad	.LVL107-1-.Ltext0
	.value	0x1
	.byte	0x54
	.quad	.LVL107-1-.Ltext0
	.quad	.LVL111-.Ltext0
	.value	0x1
	.byte	0x56
	.quad	.LVL111-.Ltext0
	.quad	.LFE56-.Ltext0
	.value	0x4
	.byte	0xf3
	.uleb128 0x1
	.byte	0x54
	.byte	0x9f
	.quad	0
	.quad	0
.LVUS60:
	.uleb128 .LVU254
	.uleb128 .LVU256
	.uleb128 .LVU256
	.uleb128 .LVU261
.LLST60:
	.quad	.LVL108-.Ltext0
	.quad	.LVL109-1-.Ltext0
	.value	0x1
	.byte	0x50
	.quad	.LVL109-1-.Ltext0
	.quad	.LVL110-.Ltext0
	.value	0x1
	.byte	0x53
	.quad	0
	.quad	0
.LVUS61:
	.uleb128 .LVU256
	.uleb128 .LVU263
.LLST61:
	.quad	.LVL109-.Ltext0
	.quad	.LVL112-1-.Ltext0
	.value	0x1
	.byte	0x50
	.quad	0
	.quad	0
.LVUS54:
	.uleb128 0
	.uleb128 .LVU235
	.uleb128 .LVU235
	.uleb128 0
.LLST54:
	.quad	.LVL99-.Ltext0
	.quad	.LVL100-1-.Ltext0
	.value	0x1
	.byte	0x55
	.quad	.LVL100-1-.Ltext0
	.quad	.LFE55-.Ltext0
	.value	0x4
	.byte	0xf3
	.uleb128 0x1
	.byte	0x55
	.byte	0x9f
	.quad	0
	.quad	0
.LVUS55:
	.uleb128 0
	.uleb128 .LVU235
	.uleb128 .LVU235
	.uleb128 .LVU245
	.uleb128 .LVU245
	.uleb128 0
.LLST55:
	.quad	.LVL99-.Ltext0
	.quad	.LVL100-1-.Ltext0
	.value	0x1
	.byte	0x54
	.quad	.LVL100-1-.Ltext0
	.quad	.LVL104-.Ltext0
	.value	0x1
	.byte	0x56
	.quad	.LVL104-.Ltext0
	.quad	.LFE55-.Ltext0
	.value	0x4
	.byte	0xf3
	.uleb128 0x1
	.byte	0x54
	.byte	0x9f
	.quad	0
	.quad	0
.LVUS56:
	.uleb128 .LVU237
	.uleb128 .LVU239
	.uleb128 .LVU239
	.uleb128 .LVU244
.LLST56:
	.quad	.LVL101-.Ltext0
	.quad	.LVL102-1-.Ltext0
	.value	0x1
	.byte	0x50
	.quad	.LVL102-1-.Ltext0
	.quad	.LVL103-.Ltext0
	.value	0x1
	.byte	0x53
	.quad	0
	.quad	0
.LVUS57:
	.uleb128 .LVU239
	.uleb128 .LVU246
.LLST57:
	.quad	.LVL102-.Ltext0
	.quad	.LVL105-1-.Ltext0
	.value	0x1
	.byte	0x50
	.quad	0
	.quad	0
.LVUS50:
	.uleb128 0
	.uleb128 .LVU218
	.uleb128 .LVU218
	.uleb128 0
.LLST50:
	.quad	.LVL92-.Ltext0
	.quad	.LVL93-1-.Ltext0
	.value	0x1
	.byte	0x55
	.quad	.LVL93-1-.Ltext0
	.quad	.LFE54-.Ltext0
	.value	0x4
	.byte	0xf3
	.uleb128 0x1
	.byte	0x55
	.byte	0x9f
	.quad	0
	.quad	0
.LVUS51:
	.uleb128 0
	.uleb128 .LVU218
	.uleb128 .LVU218
	.uleb128 .LVU228
	.uleb128 .LVU228
	.uleb128 0
.LLST51:
	.quad	.LVL92-.Ltext0
	.quad	.LVL93-1-.Ltext0
	.value	0x1
	.byte	0x54
	.quad	.LVL93-1-.Ltext0
	.quad	.LVL97-.Ltext0
	.value	0x1
	.byte	0x56
	.quad	.LVL97-.Ltext0
	.quad	.LFE54-.Ltext0
	.value	0x4
	.byte	0xf3
	.uleb128 0x1
	.byte	0x54
	.byte	0x9f
	.quad	0
	.quad	0
.LVUS52:
	.uleb128 .LVU220
	.uleb128 .LVU222
	.uleb128 .LVU222
	.uleb128 .LVU227
.LLST52:
	.quad	.LVL94-.Ltext0
	.quad	.LVL95-1-.Ltext0
	.value	0x1
	.byte	0x50
	.quad	.LVL95-1-.Ltext0
	.quad	.LVL96-.Ltext0
	.value	0x1
	.byte	0x53
	.quad	0
	.quad	0
.LVUS53:
	.uleb128 .LVU222
	.uleb128 .LVU229
.LLST53:
	.quad	.LVL95-.Ltext0
	.quad	.LVL98-1-.Ltext0
	.value	0x1
	.byte	0x50
	.quad	0
	.quad	0
.LVUS46:
	.uleb128 0
	.uleb128 .LVU201
	.uleb128 .LVU201
	.uleb128 0
.LLST46:
	.quad	.LVL85-.Ltext0
	.quad	.LVL86-1-.Ltext0
	.value	0x1
	.byte	0x55
	.quad	.LVL86-1-.Ltext0
	.quad	.LFE53-.Ltext0
	.value	0x4
	.byte	0xf3
	.uleb128 0x1
	.byte	0x55
	.byte	0x9f
	.quad	0
	.quad	0
.LVUS47:
	.uleb128 0
	.uleb128 .LVU201
	.uleb128 .LVU201
	.uleb128 .LVU211
	.uleb128 .LVU211
	.uleb128 0
.LLST47:
	.quad	.LVL85-.Ltext0
	.quad	.LVL86-1-.Ltext0
	.value	0x1
	.byte	0x54
	.quad	.LVL86-1-.Ltext0
	.quad	.LVL90-.Ltext0
	.value	0x1
	.byte	0x56
	.quad	.LVL90-.Ltext0
	.quad	.LFE53-.Ltext0
	.value	0x4
	.byte	0xf3
	.uleb128 0x1
	.byte	0x54
	.byte	0x9f
	.quad	0
	.quad	0
.LVUS48:
	.uleb128 .LVU203
	.uleb128 .LVU205
	.uleb128 .LVU205
	.uleb128 .LVU210
.LLST48:
	.quad	.LVL87-.Ltext0
	.quad	.LVL88-1-.Ltext0
	.value	0x1
	.byte	0x50
	.quad	.LVL88-1-.Ltext0
	.quad	.LVL89-.Ltext0
	.value	0x1
	.byte	0x53
	.quad	0
	.quad	0
.LVUS49:
	.uleb128 .LVU205
	.uleb128 .LVU212
.LLST49:
	.quad	.LVL88-.Ltext0
	.quad	.LVL91-1-.Ltext0
	.value	0x1
	.byte	0x50
	.quad	0
	.quad	0
.LVUS42:
	.uleb128 0
	.uleb128 .LVU184
	.uleb128 .LVU184
	.uleb128 0
.LLST42:
	.quad	.LVL78-.Ltext0
	.quad	.LVL79-1-.Ltext0
	.value	0x1
	.byte	0x55
	.quad	.LVL79-1-.Ltext0
	.quad	.LFE52-.Ltext0
	.value	0x4
	.byte	0xf3
	.uleb128 0x1
	.byte	0x55
	.byte	0x9f
	.quad	0
	.quad	0
.LVUS43:
	.uleb128 0
	.uleb128 .LVU184
	.uleb128 .LVU184
	.uleb128 .LVU194
	.uleb128 .LVU194
	.uleb128 0
.LLST43:
	.quad	.LVL78-.Ltext0
	.quad	.LVL79-1-.Ltext0
	.value	0x1
	.byte	0x54
	.quad	.LVL79-1-.Ltext0
	.quad	.LVL83-.Ltext0
	.value	0x1
	.byte	0x56
	.quad	.LVL83-.Ltext0
	.quad	.LFE52-.Ltext0
	.value	0x4
	.byte	0xf3
	.uleb128 0x1
	.byte	0x54
	.byte	0x9f
	.quad	0
	.quad	0
.LVUS44:
	.uleb128 .LVU186
	.uleb128 .LVU188
	.uleb128 .LVU188
	.uleb128 .LVU193
.LLST44:
	.quad	.LVL80-.Ltext0
	.quad	.LVL81-1-.Ltext0
	.value	0x1
	.byte	0x50
	.quad	.LVL81-1-.Ltext0
	.quad	.LVL82-.Ltext0
	.value	0x1
	.byte	0x53
	.quad	0
	.quad	0
.LVUS45:
	.uleb128 .LVU188
	.uleb128 .LVU195
.LLST45:
	.quad	.LVL81-.Ltext0
	.quad	.LVL84-1-.Ltext0
	.value	0x1
	.byte	0x50
	.quad	0
	.quad	0
.LVUS38:
	.uleb128 0
	.uleb128 .LVU167
	.uleb128 .LVU167
	.uleb128 0
.LLST38:
	.quad	.LVL71-.Ltext0
	.quad	.LVL72-1-.Ltext0
	.value	0x1
	.byte	0x55
	.quad	.LVL72-1-.Ltext0
	.quad	.LFE51-.Ltext0
	.value	0x4
	.byte	0xf3
	.uleb128 0x1
	.byte	0x55
	.byte	0x9f
	.quad	0
	.quad	0
.LVUS39:
	.uleb128 0
	.uleb128 .LVU167
	.uleb128 .LVU167
	.uleb128 .LVU177
	.uleb128 .LVU177
	.uleb128 0
.LLST39:
	.quad	.LVL71-.Ltext0
	.quad	.LVL72-1-.Ltext0
	.value	0x1
	.byte	0x54
	.quad	.LVL72-1-.Ltext0
	.quad	.LVL76-.Ltext0
	.value	0x1
	.byte	0x56
	.quad	.LVL76-.Ltext0
	.quad	.LFE51-.Ltext0
	.value	0x4
	.byte	0xf3
	.uleb128 0x1
	.byte	0x54
	.byte	0x9f
	.quad	0
	.quad	0
.LVUS40:
	.uleb128 .LVU169
	.uleb128 .LVU171
	.uleb128 .LVU171
	.uleb128 .LVU176
.LLST40:
	.quad	.LVL73-.Ltext0
	.quad	.LVL74-1-.Ltext0
	.value	0x1
	.byte	0x50
	.quad	.LVL74-1-.Ltext0
	.quad	.LVL75-.Ltext0
	.value	0x1
	.byte	0x53
	.quad	0
	.quad	0
.LVUS41:
	.uleb128 .LVU171
	.uleb128 .LVU178
.LLST41:
	.quad	.LVL74-.Ltext0
	.quad	.LVL77-1-.Ltext0
	.value	0x1
	.byte	0x50
	.quad	0
	.quad	0
.LVUS34:
	.uleb128 0
	.uleb128 .LVU150
	.uleb128 .LVU150
	.uleb128 0
.LLST34:
	.quad	.LVL62-.Ltext0
	.quad	.LVL63-1-.Ltext0
	.value	0x1
	.byte	0x55
	.quad	.LVL63-1-.Ltext0
	.quad	.LFE50-.Ltext0
	.value	0x4
	.byte	0xf3
	.uleb128 0x1
	.byte	0x55
	.byte	0x9f
	.quad	0
	.quad	0
.LVUS35:
	.uleb128 0
	.uleb128 .LVU150
	.uleb128 .LVU150
	.uleb128 .LVU160
	.uleb128 .LVU160
	.uleb128 0
.LLST35:
	.quad	.LVL62-.Ltext0
	.quad	.LVL63-1-.Ltext0
	.value	0x1
	.byte	0x54
	.quad	.LVL63-1-.Ltext0
	.quad	.LVL69-.Ltext0
	.value	0x1
	.byte	0x56
	.quad	.LVL69-.Ltext0
	.quad	.LFE50-.Ltext0
	.value	0x4
	.byte	0xf3
	.uleb128 0x1
	.byte	0x54
	.byte	0x9f
	.quad	0
	.quad	0
.LVUS36:
	.uleb128 .LVU152
	.uleb128 .LVU154
	.uleb128 .LVU154
	.uleb128 .LVU159
.LLST36:
	.quad	.LVL64-.Ltext0
	.quad	.LVL65-1-.Ltext0
	.value	0x1
	.byte	0x50
	.quad	.LVL65-1-.Ltext0
	.quad	.LVL68-.Ltext0
	.value	0x1
	.byte	0x53
	.quad	0
	.quad	0
.LVUS37:
	.uleb128 .LVU155
	.uleb128 .LVU157
	.uleb128 .LVU157
	.uleb128 .LVU161
.LLST37:
	.quad	.LVL66-.Ltext0
	.quad	.LVL67-.Ltext0
	.value	0x1
	.byte	0x50
	.quad	.LVL67-.Ltext0
	.quad	.LVL70-1-.Ltext0
	.value	0x1
	.byte	0x58
	.quad	0
	.quad	0
.LVUS4:
	.uleb128 0
	.uleb128 .LVU25
	.uleb128 .LVU25
	.uleb128 0
.LLST4:
	.quad	.LVL8-.Ltext0
	.quad	.LVL9-1-.Ltext0
	.value	0x1
	.byte	0x55
	.quad	.LVL9-1-.Ltext0
	.quad	.LFE48-.Ltext0
	.value	0x4
	.byte	0xf3
	.uleb128 0x1
	.byte	0x55
	.byte	0x9f
	.quad	0
	.quad	0
.LVUS5:
	.uleb128 0
	.uleb128 .LVU25
	.uleb128 .LVU25
	.uleb128 .LVU34
	.uleb128 .LVU34
	.uleb128 0
.LLST5:
	.quad	.LVL8-.Ltext0
	.quad	.LVL9-1-.Ltext0
	.value	0x1
	.byte	0x54
	.quad	.LVL9-1-.Ltext0
	.quad	.LVL13-.Ltext0
	.value	0x1
	.byte	0x56
	.quad	.LVL13-.Ltext0
	.quad	.LFE48-.Ltext0
	.value	0x4
	.byte	0xf3
	.uleb128 0x1
	.byte	0x54
	.byte	0x9f
	.quad	0
	.quad	0
.LVUS6:
	.uleb128 .LVU27
	.uleb128 .LVU29
	.uleb128 .LVU29
	.uleb128 .LVU32
.LLST6:
	.quad	.LVL10-.Ltext0
	.quad	.LVL11-1-.Ltext0
	.value	0x1
	.byte	0x50
	.quad	.LVL11-1-.Ltext0
	.quad	.LVL12-.Ltext0
	.value	0x1
	.byte	0x53
	.quad	0
	.quad	0
.LVUS7:
	.uleb128 .LVU29
	.uleb128 .LVU35
.LLST7:
	.quad	.LVL11-.Ltext0
	.quad	.LVL14-1-.Ltext0
	.value	0x1
	.byte	0x50
	.quad	0
	.quad	0
.LVUS30:
	.uleb128 0
	.uleb128 .LVU134
	.uleb128 .LVU134
	.uleb128 0
.LLST30:
	.quad	.LVL55-.Ltext0
	.quad	.LVL56-1-.Ltext0
	.value	0x1
	.byte	0x55
	.quad	.LVL56-1-.Ltext0
	.quad	.LFE47-.Ltext0
	.value	0x4
	.byte	0xf3
	.uleb128 0x1
	.byte	0x55
	.byte	0x9f
	.quad	0
	.quad	0
.LVUS31:
	.uleb128 0
	.uleb128 .LVU134
	.uleb128 .LVU134
	.uleb128 .LVU143
	.uleb128 .LVU143
	.uleb128 0
.LLST31:
	.quad	.LVL55-.Ltext0
	.quad	.LVL56-1-.Ltext0
	.value	0x1
	.byte	0x54
	.quad	.LVL56-1-.Ltext0
	.quad	.LVL60-.Ltext0
	.value	0x1
	.byte	0x56
	.quad	.LVL60-.Ltext0
	.quad	.LFE47-.Ltext0
	.value	0x4
	.byte	0xf3
	.uleb128 0x1
	.byte	0x54
	.byte	0x9f
	.quad	0
	.quad	0
.LVUS32:
	.uleb128 .LVU136
	.uleb128 .LVU138
	.uleb128 .LVU138
	.uleb128 .LVU141
.LLST32:
	.quad	.LVL57-.Ltext0
	.quad	.LVL58-1-.Ltext0
	.value	0x1
	.byte	0x50
	.quad	.LVL58-1-.Ltext0
	.quad	.LVL59-.Ltext0
	.value	0x1
	.byte	0x53
	.quad	0
	.quad	0
.LVUS33:
	.uleb128 .LVU138
	.uleb128 .LVU144
.LLST33:
	.quad	.LVL58-.Ltext0
	.quad	.LVL61-1-.Ltext0
	.value	0x1
	.byte	0x50
	.quad	0
	.quad	0
.LVUS26:
	.uleb128 0
	.uleb128 .LVU118
	.uleb128 .LVU118
	.uleb128 0
.LLST26:
	.quad	.LVL48-.Ltext0
	.quad	.LVL49-1-.Ltext0
	.value	0x1
	.byte	0x55
	.quad	.LVL49-1-.Ltext0
	.quad	.LFE46-.Ltext0
	.value	0x4
	.byte	0xf3
	.uleb128 0x1
	.byte	0x55
	.byte	0x9f
	.quad	0
	.quad	0
.LVUS27:
	.uleb128 0
	.uleb128 .LVU118
	.uleb128 .LVU118
	.uleb128 .LVU127
	.uleb128 .LVU127
	.uleb128 0
.LLST27:
	.quad	.LVL48-.Ltext0
	.quad	.LVL49-1-.Ltext0
	.value	0x1
	.byte	0x54
	.quad	.LVL49-1-.Ltext0
	.quad	.LVL53-.Ltext0
	.value	0x1
	.byte	0x56
	.quad	.LVL53-.Ltext0
	.quad	.LFE46-.Ltext0
	.value	0x4
	.byte	0xf3
	.uleb128 0x1
	.byte	0x54
	.byte	0x9f
	.quad	0
	.quad	0
.LVUS28:
	.uleb128 .LVU120
	.uleb128 .LVU122
	.uleb128 .LVU122
	.uleb128 .LVU125
.LLST28:
	.quad	.LVL50-.Ltext0
	.quad	.LVL51-1-.Ltext0
	.value	0x1
	.byte	0x50
	.quad	.LVL51-1-.Ltext0
	.quad	.LVL52-.Ltext0
	.value	0x1
	.byte	0x53
	.quad	0
	.quad	0
.LVUS29:
	.uleb128 .LVU122
	.uleb128 .LVU128
.LLST29:
	.quad	.LVL51-.Ltext0
	.quad	.LVL54-1-.Ltext0
	.value	0x1
	.byte	0x50
	.quad	0
	.quad	0
.LVUS22:
	.uleb128 0
	.uleb128 .LVU102
	.uleb128 .LVU102
	.uleb128 0
.LLST22:
	.quad	.LVL41-.Ltext0
	.quad	.LVL42-1-.Ltext0
	.value	0x1
	.byte	0x55
	.quad	.LVL42-1-.Ltext0
	.quad	.LFE45-.Ltext0
	.value	0x4
	.byte	0xf3
	.uleb128 0x1
	.byte	0x55
	.byte	0x9f
	.quad	0
	.quad	0
.LVUS23:
	.uleb128 0
	.uleb128 .LVU102
	.uleb128 .LVU102
	.uleb128 .LVU111
	.uleb128 .LVU111
	.uleb128 0
.LLST23:
	.quad	.LVL41-.Ltext0
	.quad	.LVL42-1-.Ltext0
	.value	0x1
	.byte	0x54
	.quad	.LVL42-1-.Ltext0
	.quad	.LVL46-.Ltext0
	.value	0x1
	.byte	0x56
	.quad	.LVL46-.Ltext0
	.quad	.LFE45-.Ltext0
	.value	0x4
	.byte	0xf3
	.uleb128 0x1
	.byte	0x54
	.byte	0x9f
	.quad	0
	.quad	0
.LVUS24:
	.uleb128 .LVU104
	.uleb128 .LVU106
	.uleb128 .LVU106
	.uleb128 .LVU110
.LLST24:
	.quad	.LVL43-.Ltext0
	.quad	.LVL44-1-.Ltext0
	.value	0x1
	.byte	0x50
	.quad	.LVL44-1-.Ltext0
	.quad	.LVL45-.Ltext0
	.value	0x1
	.byte	0x53
	.quad	0
	.quad	0
.LVUS25:
	.uleb128 .LVU106
	.uleb128 .LVU112
.LLST25:
	.quad	.LVL44-.Ltext0
	.quad	.LVL47-1-.Ltext0
	.value	0x1
	.byte	0x50
	.quad	0
	.quad	0
.LVUS0:
	.uleb128 0
	.uleb128 .LVU5
	.uleb128 .LVU5
	.uleb128 0
.LLST0:
	.quad	.LVL0-.Ltext0
	.quad	.LVL1-1-.Ltext0
	.value	0x1
	.byte	0x55
	.quad	.LVL1-1-.Ltext0
	.quad	.LFE44-.Ltext0
	.value	0x4
	.byte	0xf3
	.uleb128 0x1
	.byte	0x55
	.byte	0x9f
	.quad	0
	.quad	0
.LVUS1:
	.uleb128 0
	.uleb128 .LVU5
	.uleb128 .LVU5
	.uleb128 .LVU17
	.uleb128 .LVU17
	.uleb128 0
.LLST1:
	.quad	.LVL0-.Ltext0
	.quad	.LVL1-1-.Ltext0
	.value	0x1
	.byte	0x54
	.quad	.LVL1-1-.Ltext0
	.quad	.LVL6-.Ltext0
	.value	0x1
	.byte	0x56
	.quad	.LVL6-.Ltext0
	.quad	.LFE44-.Ltext0
	.value	0x4
	.byte	0xf3
	.uleb128 0x1
	.byte	0x54
	.byte	0x9f
	.quad	0
	.quad	0
.LVUS2:
	.uleb128 .LVU7
	.uleb128 .LVU9
	.uleb128 .LVU9
	.uleb128 .LVU13
	.uleb128 .LVU13
	.uleb128 .LVU14
.LLST2:
	.quad	.LVL2-.Ltext0
	.quad	.LVL3-1-.Ltext0
	.value	0x1
	.byte	0x50
	.quad	.LVL3-1-.Ltext0
	.quad	.LVL4-.Ltext0
	.value	0x1
	.byte	0x53
	.quad	.LVL4-.Ltext0
	.quad	.LVL5-.Ltext0
	.value	0x1
	.byte	0x51
	.quad	0
	.quad	0
.LVUS3:
	.uleb128 .LVU9
	.uleb128 .LVU19
.LLST3:
	.quad	.LVL3-.Ltext0
	.quad	.LVL7-1-.Ltext0
	.value	0x1
	.byte	0x50
	.quad	0
	.quad	0
.LVUS18:
	.uleb128 0
	.uleb128 .LVU87
	.uleb128 .LVU87
	.uleb128 0
.LLST18:
	.quad	.LVL33-.Ltext0
	.quad	.LVL34-1-.Ltext0
	.value	0x1
	.byte	0x55
	.quad	.LVL34-1-.Ltext0
	.quad	.LFE43-.Ltext0
	.value	0x4
	.byte	0xf3
	.uleb128 0x1
	.byte	0x55
	.byte	0x9f
	.quad	0
	.quad	0
.LVUS19:
	.uleb128 0
	.uleb128 .LVU87
	.uleb128 .LVU87
	.uleb128 .LVU96
	.uleb128 .LVU96
	.uleb128 0
.LLST19:
	.quad	.LVL33-.Ltext0
	.quad	.LVL34-1-.Ltext0
	.value	0x1
	.byte	0x54
	.quad	.LVL34-1-.Ltext0
	.quad	.LVL39-.Ltext0
	.value	0x1
	.byte	0x56
	.quad	.LVL39-.Ltext0
	.quad	.LFE43-.Ltext0
	.value	0x4
	.byte	0xf3
	.uleb128 0x1
	.byte	0x54
	.byte	0x9f
	.quad	0
	.quad	0
.LVUS20:
	.uleb128 .LVU89
	.uleb128 .LVU91
	.uleb128 .LVU91
	.uleb128 .LVU94
.LLST20:
	.quad	.LVL35-.Ltext0
	.quad	.LVL36-1-.Ltext0
	.value	0x1
	.byte	0x50
	.quad	.LVL36-1-.Ltext0
	.quad	.LVL38-.Ltext0
	.value	0x1
	.byte	0x53
	.quad	0
	.quad	0
.LVUS21:
	.uleb128 .LVU91
	.uleb128 .LVU93
.LLST21:
	.quad	.LVL36-.Ltext0
	.quad	.LVL37-1-.Ltext0
	.value	0x1
	.byte	0x50
	.quad	0
	.quad	0
.LVUS14:
	.uleb128 0
	.uleb128 .LVU71
	.uleb128 .LVU71
	.uleb128 0
.LLST14:
	.quad	.LVL26-.Ltext0
	.quad	.LVL27-1-.Ltext0
	.value	0x1
	.byte	0x55
	.quad	.LVL27-1-.Ltext0
	.quad	.LFE42-.Ltext0
	.value	0x4
	.byte	0xf3
	.uleb128 0x1
	.byte	0x55
	.byte	0x9f
	.quad	0
	.quad	0
.LVUS15:
	.uleb128 0
	.uleb128 .LVU71
	.uleb128 .LVU71
	.uleb128 .LVU80
	.uleb128 .LVU80
	.uleb128 0
.LLST15:
	.quad	.LVL26-.Ltext0
	.quad	.LVL27-1-.Ltext0
	.value	0x1
	.byte	0x54
	.quad	.LVL27-1-.Ltext0
	.quad	.LVL31-.Ltext0
	.value	0x1
	.byte	0x56
	.quad	.LVL31-.Ltext0
	.quad	.LFE42-.Ltext0
	.value	0x4
	.byte	0xf3
	.uleb128 0x1
	.byte	0x54
	.byte	0x9f
	.quad	0
	.quad	0
.LVUS16:
	.uleb128 .LVU73
	.uleb128 .LVU75
	.uleb128 .LVU75
	.uleb128 .LVU78
.LLST16:
	.quad	.LVL28-.Ltext0
	.quad	.LVL29-1-.Ltext0
	.value	0x1
	.byte	0x50
	.quad	.LVL29-1-.Ltext0
	.quad	.LVL30-.Ltext0
	.value	0x1
	.byte	0x53
	.quad	0
	.quad	0
.LVUS17:
	.uleb128 .LVU75
	.uleb128 .LVU81
.LLST17:
	.quad	.LVL29-.Ltext0
	.quad	.LVL32-1-.Ltext0
	.value	0x1
	.byte	0x50
	.quad	0
	.quad	0
.LVUS10:
	.uleb128 0
	.uleb128 .LVU55
	.uleb128 .LVU55
	.uleb128 0
.LLST10:
	.quad	.LVL19-.Ltext0
	.quad	.LVL20-1-.Ltext0
	.value	0x1
	.byte	0x55
	.quad	.LVL20-1-.Ltext0
	.quad	.LFE41-.Ltext0
	.value	0x4
	.byte	0xf3
	.uleb128 0x1
	.byte	0x55
	.byte	0x9f
	.quad	0
	.quad	0
.LVUS11:
	.uleb128 0
	.uleb128 .LVU55
	.uleb128 .LVU55
	.uleb128 .LVU64
	.uleb128 .LVU64
	.uleb128 0
.LLST11:
	.quad	.LVL19-.Ltext0
	.quad	.LVL20-1-.Ltext0
	.value	0x1
	.byte	0x54
	.quad	.LVL20-1-.Ltext0
	.quad	.LVL24-.Ltext0
	.value	0x1
	.byte	0x56
	.quad	.LVL24-.Ltext0
	.quad	.LFE41-.Ltext0
	.value	0x4
	.byte	0xf3
	.uleb128 0x1
	.byte	0x54
	.byte	0x9f
	.quad	0
	.quad	0
.LVUS12:
	.uleb128 .LVU57
	.uleb128 .LVU59
	.uleb128 .LVU59
	.uleb128 .LVU62
.LLST12:
	.quad	.LVL21-.Ltext0
	.quad	.LVL22-1-.Ltext0
	.value	0x1
	.byte	0x50
	.quad	.LVL22-1-.Ltext0
	.quad	.LVL23-.Ltext0
	.value	0x1
	.byte	0x53
	.quad	0
	.quad	0
.LVUS13:
	.uleb128 .LVU59
	.uleb128 .LVU65
.LLST13:
	.quad	.LVL22-.Ltext0
	.quad	.LVL25-1-.Ltext0
	.value	0x1
	.byte	0x50
	.quad	0
	.quad	0
.LVUS94:
	.uleb128 0
	.uleb128 .LVU421
	.uleb128 .LVU421
	.uleb128 0
.LLST94:
	.quad	.LVL168-.Ltext0
	.quad	.LVL169-1-.Ltext0
	.value	0x1
	.byte	0x55
	.quad	.LVL169-1-.Ltext0
	.quad	.LFE40-.Ltext0
	.value	0x4
	.byte	0xf3
	.uleb128 0x1
	.byte	0x55
	.byte	0x9f
	.quad	0
	.quad	0
.LVUS95:
	.uleb128 0
	.uleb128 .LVU421
	.uleb128 .LVU421
	.uleb128 .LVU430
	.uleb128 .LVU430
	.uleb128 0
.LLST95:
	.quad	.LVL168-.Ltext0
	.quad	.LVL169-1-.Ltext0
	.value	0x1
	.byte	0x54
	.quad	.LVL169-1-.Ltext0
	.quad	.LVL174-.Ltext0
	.value	0x1
	.byte	0x5c
	.quad	.LVL174-.Ltext0
	.quad	.LFE40-.Ltext0
	.value	0x4
	.byte	0xf3
	.uleb128 0x1
	.byte	0x54
	.byte	0x9f
	.quad	0
	.quad	0
.LVUS96:
	.uleb128 0
	.uleb128 .LVU421
	.uleb128 .LVU421
	.uleb128 0
.LLST96:
	.quad	.LVL168-.Ltext0
	.quad	.LVL169-1-.Ltext0
	.value	0x1
	.byte	0x51
	.quad	.LVL169-1-.Ltext0
	.quad	.LFE40-.Ltext0
	.value	0x4
	.byte	0xf3
	.uleb128 0x1
	.byte	0x51
	.byte	0x9f
	.quad	0
	.quad	0
.LVUS97:
	.uleb128 .LVU423
	.uleb128 .LVU425
	.uleb128 .LVU425
	.uleb128 .LVU435
	.uleb128 .LVU436
	.uleb128 .LVU438
	.uleb128 .LVU439
	.uleb128 .LVU442
	.uleb128 .LVU442
	.uleb128 .LVU444
	.uleb128 .LVU446
	.uleb128 .LVU448
	.uleb128 .LVU449
	.uleb128 .LVU451
	.uleb128 .LVU452
	.uleb128 .LVU454
	.uleb128 .LVU455
	.uleb128 .LVU458
	.uleb128 .LVU461
	.uleb128 .LVU482
	.uleb128 .LVU483
	.uleb128 .LVU489
	.uleb128 .LVU492
	.uleb128 .LVU494
	.uleb128 .LVU494
	.uleb128 .LVU495
	.uleb128 .LVU495
	.uleb128 .LVU497
.LLST97:
	.quad	.LVL170-.Ltext0
	.quad	.LVL171-1-.Ltext0
	.value	0x1
	.byte	0x50
	.quad	.LVL171-1-.Ltext0
	.quad	.LVL176-.Ltext0
	.value	0x1
	.byte	0x53
	.quad	.LVL177-.Ltext0
	.quad	.LVL178-.Ltext0
	.value	0x1
	.byte	0x53
	.quad	.LVL179-.Ltext0
	.quad	.LVL180-.Ltext0
	.value	0x1
	.byte	0x53
	.quad	.LVL180-.Ltext0
	.quad	.LVL181-.Ltext0
	.value	0x1
	.byte	0x50
	.quad	.LVL182-.Ltext0
	.quad	.LVL183-.Ltext0
	.value	0x1
	.byte	0x53
	.quad	.LVL184-.Ltext0
	.quad	.LVL185-.Ltext0
	.value	0x1
	.byte	0x53
	.quad	.LVL186-.Ltext0
	.quad	.LVL187-.Ltext0
	.value	0x1
	.byte	0x53
	.quad	.LVL188-.Ltext0
	.quad	.LVL189-.Ltext0
	.value	0x1
	.byte	0x53
	.quad	.LVL191-.Ltext0
	.quad	.LVL193-.Ltext0
	.value	0x1
	.byte	0x53
	.quad	.LVL194-.Ltext0
	.quad	.LVL195-.Ltext0
	.value	0x1
	.byte	0x53
	.quad	.LVL196-.Ltext0
	.quad	.LVL197-.Ltext0
	.value	0x1
	.byte	0x53
	.quad	.LVL197-.Ltext0
	.quad	.LVL198-.Ltext0
	.value	0x4
	.byte	0x73
	.sleb128 0
	.byte	0x20
	.byte	0x9f
	.quad	.LVL198-.Ltext0
	.quad	.LVL199-.Ltext0
	.value	0x1
	.byte	0x53
	.quad	0
	.quad	0
.LVUS98:
	.uleb128 .LVU427
	.uleb128 .LVU429
	.uleb128 .LVU429
	.uleb128 0
.LLST98:
	.quad	.LVL172-.Ltext0
	.quad	.LVL173-1-.Ltext0
	.value	0x1
	.byte	0x50
	.quad	.LVL173-1-.Ltext0
	.quad	.LFE40-.Ltext0
	.value	0x2
	.byte	0x91
	.sleb128 -36
	.quad	0
	.quad	0
.LVUS99:
	.uleb128 .LVU430
	.uleb128 .LVU432
	.uleb128 .LVU432
	.uleb128 .LVU460
	.uleb128 .LVU461
	.uleb128 .LVU500
	.uleb128 .LVU500
	.uleb128 0
.LLST99:
	.quad	.LVL174-.Ltext0
	.quad	.LVL175-.Ltext0
	.value	0x1
	.byte	0x50
	.quad	.LVL175-.Ltext0
	.quad	.LVL190-.Ltext0
	.value	0x1
	.byte	0x5c
	.quad	.LVL191-.Ltext0
	.quad	.LVL200-.Ltext0
	.value	0x1
	.byte	0x5c
	.quad	.LVL200-.Ltext0
	.quad	.LFE40-.Ltext0
	.value	0x1
	.byte	0x50
	.quad	0
	.quad	0
.LVUS100:
	.uleb128 .LVU431
	.uleb128 .LVU432
	.uleb128 .LVU432
	.uleb128 .LVU460
	.uleb128 .LVU461
	.uleb128 .LVU500
	.uleb128 .LVU500
	.uleb128 0
.LLST100:
	.quad	.LVL174-.Ltext0
	.quad	.LVL175-.Ltext0
	.value	0x3
	.byte	0x70
	.sleb128 9
	.byte	0x9f
	.quad	.LVL175-.Ltext0
	.quad	.LVL190-.Ltext0
	.value	0x3
	.byte	0x7c
	.sleb128 9
	.byte	0x9f
	.quad	.LVL191-.Ltext0
	.quad	.LVL200-.Ltext0
	.value	0x3
	.byte	0x7c
	.sleb128 9
	.byte	0x9f
	.quad	.LVL200-.Ltext0
	.quad	.LFE40-.Ltext0
	.value	0x3
	.byte	0x70
	.sleb128 9
	.byte	0x9f
	.quad	0
	.quad	0
.LVUS89:
	.uleb128 0
	.uleb128 .LVU372
	.uleb128 .LVU372
	.uleb128 .LVU406
	.uleb128 .LVU406
	.uleb128 .LVU407
	.uleb128 .LVU407
	.uleb128 .LVU415
	.uleb128 .LVU415
	.uleb128 0
.LLST89:
	.quad	.LVL153-.Ltext0
	.quad	.LVL154-.Ltext0
	.value	0x1
	.byte	0x55
	.quad	.LVL154-.Ltext0
	.quad	.LVL162-.Ltext0
	.value	0x1
	.byte	0x5c
	.quad	.LVL162-.Ltext0
	.quad	.LVL163-.Ltext0
	.value	0x4
	.byte	0xf3
	.uleb128 0x1
	.byte	0x55
	.byte	0x9f
	.quad	.LVL163-.Ltext0
	.quad	.LVL167-.Ltext0
	.value	0x1
	.byte	0x5c
	.quad	.LVL167-.Ltext0
	.quad	.LFE39-.Ltext0
	.value	0x1
	.byte	0x50
	.quad	0
	.quad	0
.LVUS90:
	.uleb128 0
	.uleb128 .LVU374
	.uleb128 .LVU374
	.uleb128 0
.LLST90:
	.quad	.LVL153-.Ltext0
	.quad	.LVL155-1-.Ltext0
	.value	0x1
	.byte	0x54
	.quad	.LVL155-1-.Ltext0
	.quad	.LFE39-.Ltext0
	.value	0x4
	.byte	0xf3
	.uleb128 0x1
	.byte	0x54
	.byte	0x9f
	.quad	0
	.quad	0
.LVUS91:
	.uleb128 0
	.uleb128 .LVU374
	.uleb128 .LVU374
	.uleb128 0
.LLST91:
	.quad	.LVL153-.Ltext0
	.quad	.LVL155-1-.Ltext0
	.value	0x1
	.byte	0x51
	.quad	.LVL155-1-.Ltext0
	.quad	.LFE39-.Ltext0
	.value	0x4
	.byte	0xf3
	.uleb128 0x1
	.byte	0x51
	.byte	0x9f
	.quad	0
	.quad	0
.LVUS92:
	.uleb128 .LVU374
	.uleb128 .LVU376
	.uleb128 .LVU376
	.uleb128 .LVU388
	.uleb128 .LVU391
	.uleb128 .LVU399
	.uleb128 .LVU401
	.uleb128 .LVU404
	.uleb128 .LVU407
	.uleb128 .LVU409
	.uleb128 .LVU411
	.uleb128 .LVU414
.LLST92:
	.quad	.LVL155-.Ltext0
	.quad	.LVL156-.Ltext0
	.value	0x1
	.byte	0x50
	.quad	.LVL156-.Ltext0
	.quad	.LVL157-.Ltext0
	.value	0x1
	.byte	0x52
	.quad	.LVL158-.Ltext0
	.quad	.LVL159-.Ltext0
	.value	0x1
	.byte	0x52
	.quad	.LVL160-.Ltext0
	.quad	.LVL161-.Ltext0
	.value	0x1
	.byte	0x52
	.quad	.LVL163-.Ltext0
	.quad	.LVL164-1-.Ltext0
	.value	0x1
	.byte	0x52
	.quad	.LVL165-.Ltext0
	.quad	.LVL166-.Ltext0
	.value	0x1
	.byte	0x52
	.quad	0
	.quad	0
.LVUS93:
	.uleb128 .LVU375
	.uleb128 .LVU406
	.uleb128 .LVU406
	.uleb128 .LVU407
	.uleb128 .LVU407
	.uleb128 .LVU415
	.uleb128 .LVU415
	.uleb128 0
.LLST93:
	.quad	.LVL155-.Ltext0
	.quad	.LVL162-.Ltext0
	.value	0x3
	.byte	0x7c
	.sleb128 9
	.byte	0x9f
	.quad	.LVL162-.Ltext0
	.quad	.LVL163-.Ltext0
	.value	0x6
	.byte	0xf3
	.uleb128 0x1
	.byte	0x55
	.byte	0x23
	.uleb128 0x9
	.byte	0x9f
	.quad	.LVL163-.Ltext0
	.quad	.LVL167-.Ltext0
	.value	0x3
	.byte	0x7c
	.sleb128 9
	.byte	0x9f
	.quad	.LVL167-.Ltext0
	.quad	.LFE39-.Ltext0
	.value	0x3
	.byte	0x70
	.sleb128 9
	.byte	0x9f
	.quad	0
	.quad	0
.LVUS86:
	.uleb128 0
	.uleb128 .LVU365
	.uleb128 .LVU365
	.uleb128 0
.LLST86:
	.quad	.LVL149-.Ltext0
	.quad	.LVL151-1-.Ltext0
	.value	0x1
	.byte	0x55
	.quad	.LVL151-1-.Ltext0
	.quad	.LFE38-.Ltext0
	.value	0x4
	.byte	0xf3
	.uleb128 0x1
	.byte	0x55
	.byte	0x9f
	.quad	0
	.quad	0
.LVUS87:
	.uleb128 0
	.uleb128 .LVU364
	.uleb128 .LVU364
	.uleb128 0
.LLST87:
	.quad	.LVL149-.Ltext0
	.quad	.LVL150-.Ltext0
	.value	0x1
	.byte	0x54
	.quad	.LVL150-.Ltext0
	.quad	.LFE38-.Ltext0
	.value	0x4
	.byte	0xf3
	.uleb128 0x1
	.byte	0x54
	.byte	0x9f
	.quad	0
	.quad	0
.LVUS88:
	.uleb128 0
	.uleb128 .LVU365
	.uleb128 .LVU365
	.uleb128 0
.LLST88:
	.quad	.LVL149-.Ltext0
	.quad	.LVL151-1-.Ltext0
	.value	0x1
	.byte	0x51
	.quad	.LVL151-1-.Ltext0
	.quad	.LFE38-.Ltext0
	.value	0x4
	.byte	0xf3
	.uleb128 0x1
	.byte	0x51
	.byte	0x9f
	.quad	0
	.quad	0
.LVUS85:
	.uleb128 0
	.uleb128 .LVU355
	.uleb128 .LVU355
	.uleb128 0
.LLST85:
	.quad	.LVL146-.Ltext0
	.quad	.LVL147-1-.Ltext0
	.value	0x1
	.byte	0x55
	.quad	.LVL147-1-.Ltext0
	.quad	.LFE37-.Ltext0
	.value	0x4
	.byte	0xf3
	.uleb128 0x1
	.byte	0x55
	.byte	0x9f
	.quad	0
	.quad	0
.LVUS82:
	.uleb128 0
	.uleb128 .LVU341
	.uleb128 .LVU341
	.uleb128 0
.LLST82:
	.quad	.LVL142-.Ltext0
	.quad	.LVL143-.Ltext0
	.value	0x1
	.byte	0x55
	.quad	.LVL143-.Ltext0
	.quad	.LFE36-.Ltext0
	.value	0x4
	.byte	0xf3
	.uleb128 0x1
	.byte	0x55
	.byte	0x9f
	.quad	0
	.quad	0
.LVUS83:
	.uleb128 0
	.uleb128 .LVU343
	.uleb128 .LVU343
	.uleb128 .LVU349
	.uleb128 .LVU349
	.uleb128 0
.LLST83:
	.quad	.LVL142-.Ltext0
	.quad	.LVL144-1-.Ltext0
	.value	0x1
	.byte	0x54
	.quad	.LVL144-1-.Ltext0
	.quad	.LVL145-.Ltext0
	.value	0x1
	.byte	0x53
	.quad	.LVL145-.Ltext0
	.quad	.LFE36-.Ltext0
	.value	0x2
	.byte	0x70
	.sleb128 9
	.quad	0
	.quad	0
.LVUS84:
	.uleb128 .LVU343
	.uleb128 0
.LLST84:
	.quad	.LVL144-.Ltext0
	.quad	.LFE36-.Ltext0
	.value	0x1
	.byte	0x50
	.quad	0
	.quad	0
.LVUS8:
	.uleb128 0
	.uleb128 .LVU42
	.uleb128 .LVU42
	.uleb128 .LVU49
	.uleb128 .LVU49
	.uleb128 0
.LLST8:
	.quad	.LVL15-.Ltext0
	.quad	.LVL16-.Ltext0
	.value	0x1
	.byte	0x55
	.quad	.LVL16-.Ltext0
	.quad	.LVL18-.Ltext0
	.value	0x1
	.byte	0x53
	.quad	.LVL18-.Ltext0
	.quad	.LFE35-.Ltext0
	.value	0x2
	.byte	0x70
	.sleb128 9
	.quad	0
	.quad	0
.LVUS9:
	.uleb128 .LVU43
	.uleb128 0
.LLST9:
	.quad	.LVL17-.Ltext0
	.quad	.LFE35-.Ltext0
	.value	0x1
	.byte	0x50
	.quad	0
	.quad	0
	.section	.debug_aranges,"",@progbits
	.long	0x2c
	.value	0x2
	.long	.Ldebug_info0
	.byte	0x8
	.byte	0
	.value	0
	.value	0
	.quad	.Ltext0
	.quad	.Letext0-.Ltext0
	.quad	0
	.quad	0
	.section	.debug_line,"",@progbits
.Ldebug_line0:
	.section	.debug_str,"MS",@progbits,1
.LASF35:
	.string	"_shortbuf"
.LASF92:
	.string	"fbgc_operator2"
.LASF148:
	.string	"_IO_lock_t"
.LASF127:
	.string	"operator_L_SHIFT_fbgc_int_object"
.LASF83:
	.string	"object_pool_head"
.LASF51:
	.string	"stderr"
.LASF24:
	.string	"_IO_buf_end"
.LASF55:
	.string	"signgam"
.LASF22:
	.string	"_IO_write_end"
.LASF2:
	.string	"unsigned int"
.LASF75:
	.string	"next"
.LASF40:
	.string	"_freeres_list"
.LASF16:
	.string	"_flags"
.LASF105:
	.string	"fbgc_lexer_rule_holder"
.LASF28:
	.string	"_markers"
.LASF62:
	.string	"_sys_siglist"
.LASF82:
	.string	"internal_buffer_size"
.LASF103:
	.string	"fbgc_lexer_rule_struct"
.LASF70:
	.string	"operator_token_array"
.LASF58:
	.string	"__timezone"
.LASF134:
	.string	"new_fbgc_int_object_from_str"
.LASF99:
	.string	"tokens"
.LASF50:
	.string	"stdout"
.LASF27:
	.string	"_IO_save_end"
.LASF54:
	.string	"float"
.LASF47:
	.string	"_IO_codecvt"
.LASF88:
	.string	"base"
.LASF115:
	.string	"operator_LOWER_fbgc_int_object"
.LASF125:
	.string	"operator_SLASHSLASH_fbgc_int_object"
.LASF130:
	.string	"operator_fbgc_int_object2"
.LASF14:
	.string	"long long unsigned int"
.LASF116:
	.string	"operator_NOT_EQ_fbgc_int_object"
.LASF133:
	.string	"int_str_end"
.LASF100:
	.string	"token_table_struct"
.LASF53:
	.string	"sys_errlist"
.LASF26:
	.string	"_IO_backup_base"
.LASF37:
	.string	"_offset"
.LASF52:
	.string	"sys_nerr"
.LASF30:
	.string	"_fileno"
.LASF141:
	.string	"convert_fbgc_object_to_int"
.LASF42:
	.string	"__pad5"
.LASF86:
	.string	"fbgc_memb"
.LASF111:
	.string	"operator_EXCLAMATION_fbgc_int_object"
.LASF85:
	.string	"empty_chunk_head"
.LASF8:
	.string	"size_t"
.LASF96:
	.string	"token_size"
.LASF19:
	.string	"_IO_read_base"
.LASF128:
	.string	"operator_R_SHIFT_fbgc_int_object"
.LASF139:
	.string	"new_fbgc_int_object"
.LASF121:
	.string	"operator_SLASH_fbgc_int_object"
.LASF135:
	.string	"int_str"
.LASF49:
	.string	"stdin"
.LASF118:
	.string	"operator_GR_EQ_fbgc_int_object"
.LASF76:
	.string	"fbgc_memory_pool"
.LASF108:
	.string	"operator_UMINUS_fbgc_int_object"
.LASF142:
	.string	"new_fbgc_double_object"
.LASF114:
	.string	"operator_GREATER_fbgc_int_object"
.LASF98:
	.string	"states"
.LASF13:
	.string	"char"
.LASF122:
	.string	"operator_STAR_fbgc_int_object"
.LASF43:
	.string	"_mode"
.LASF57:
	.string	"__daylight"
.LASF64:
	.string	"fbgc_token"
.LASF59:
	.string	"tzname"
.LASF46:
	.string	"_IO_marker"
.LASF120:
	.string	"operator_PERCENT_fbgc_int_object"
.LASF17:
	.string	"_IO_read_ptr"
.LASF77:
	.string	"data"
.LASF149:
	.string	"operator_CARET_fbgc_int_object"
.LASF90:
	.string	"fbgc_INT_operators"
.LASF15:
	.string	"uint8_t"
.LASF97:
	.string	"inputs"
.LASF63:
	.string	"sys_siglist"
.LASF132:
	.string	"int_str_begin"
.LASF20:
	.string	"_IO_write_base"
.LASF4:
	.string	"long long int"
.LASF138:
	.string	"into"
.LASF25:
	.string	"_IO_save_base"
.LASF78:
	.string	"tptr"
.LASF91:
	.string	"fbgc_operator"
.LASF112:
	.string	"operator_AMPERSAND_fbgc_int_object"
.LASF81:
	.string	"internal_buffer_head"
.LASF119:
	.string	"operator_LO_EQ_fbgc_int_object"
.LASF79:
	.string	"size"
.LASF41:
	.string	"_freeres_buf"
.LASF145:
	.string	"GNU C17 9.2.1 20191008 -mtune=generic -march=x86-64 -g -Os -fasynchronous-unwind-tables -fstack-protector-strong -fstack-clash-protection -fcf-protection"
.LASF147:
	.string	"/home/fbgencer/fbgc/src"
.LASF34:
	.string	"_vtable_offset"
.LASF84:
	.string	"object_pool_size"
.LASF144:
	.string	"fbgc_malloc"
.LASF107:
	.string	"print_fbgc_int_object"
.LASF101:
	.string	"token"
.LASF61:
	.string	"timezone"
.LASF18:
	.string	"_IO_read_end"
.LASF10:
	.string	"short int"
.LASF3:
	.string	"long int"
.LASF71:
	.string	"reserved_words_token_array"
.LASF126:
	.string	"operator_STARSTAR_fbgc_int_object"
.LASF140:
	.string	"cprintf"
.LASF48:
	.string	"_IO_wide_data"
.LASF106:
	.string	"free_fbgc_int_object"
.LASF117:
	.string	"operator_EQ_EQ_fbgc_int_object"
.LASF73:
	.string	"fbgc_object"
.LASF9:
	.string	"__uint8_t"
.LASF66:
	.string	"name"
.LASF39:
	.string	"_wide_data"
.LASF36:
	.string	"_lock"
.LASF113:
	.string	"operator_PIPE_fbgc_int_object"
.LASF1:
	.string	"long unsigned int"
.LASF32:
	.string	"_old_offset"
.LASF72:
	.string	"_IO_FILE"
.LASF93:
	.string	"general_symbol_container"
.LASF87:
	.string	"fbgc_int_object"
.LASF102:
	.string	"rule"
.LASF94:
	.string	"general_symbols"
.LASF74:
	.string	"type"
.LASF146:
	.string	"int_object.c"
.LASF109:
	.string	"operator_UPLUS_fbgc_int_object"
.LASF5:
	.string	"unsigned char"
.LASF104:
	.string	"lexer_table"
.LASF56:
	.string	"__tzname"
.LASF137:
	.string	"int_content"
.LASF21:
	.string	"_IO_write_ptr"
.LASF95:
	.string	"input_size"
.LASF89:
	.string	"content"
.LASF143:
	.string	"strtol"
.LASF67:
	.string	"token_struct"
.LASF80:
	.string	"fbgc_memory_block"
.LASF38:
	.string	"_codecvt"
.LASF60:
	.string	"daylight"
.LASF124:
	.string	"operator_PLUS_fbgc_int_object"
.LASF11:
	.string	"__off_t"
.LASF65:
	.string	"tokencode"
.LASF7:
	.string	"signed char"
.LASF110:
	.string	"operator_TILDE_fbgc_int_object"
.LASF6:
	.string	"short unsigned int"
.LASF131:
	.string	"new_fbgc_int_object_from_substr"
.LASF0:
	.string	"double"
.LASF123:
	.string	"operator_MINUS_fbgc_int_object"
.LASF136:
	.string	"derive_from_new_int_object"
.LASF29:
	.string	"_chain"
.LASF129:
	.string	"operator_fbgc_int_object"
.LASF45:
	.string	"FILE"
.LASF31:
	.string	"_flags2"
.LASF69:
	.string	"object_name_array"
.LASF33:
	.string	"_cur_column"
.LASF68:
	.string	"gm_name_array"
.LASF12:
	.string	"__off64_t"
.LASF44:
	.string	"_unused2"
.LASF23:
	.string	"_IO_buf_base"
	.ident	"GCC: (Ubuntu 9.2.1-9ubuntu2) 9.2.1 20191008"
	.section	.note.GNU-stack,"",@progbits
	.section	.note.gnu.property,"a"
	.align 8
	.long	 1f - 0f
	.long	 4f - 1f
	.long	 5
0:
	.string	 "GNU"
1:
	.align 8
	.long	 0xc0000002
	.long	 3f - 2f
2:
	.long	 0x3
3:
	.align 8
4:
